libvamp-hostsdk.so.3:_Z20_txnal_cow_string_D1Pv
libvamp-hostsdk.so.3:_Z23_txnal_cow_string_c_strPKv
libvamp-hostsdk.so.3:_Z23_txnal_sso_string_c_strPKv
libvamp-hostsdk.so.3:_Z26_txnal_logic_error_get_msgPv
libvamp-hostsdk.so.3:_Z27_txnal_cow_string_D1_commitPv
libvamp-hostsdk.so.3:_Z28_txnal_runtime_error_get_msgPv
libvamp-hostsdk.so.3:_Z35_txnal_cow_string_C1_for_exceptionsPvPKcS_
libvamp-hostsdk.so.3:_ZGTtNKSt11logic_error4whatEv
libvamp-hostsdk.so.3:_ZGTtNKSt13bad_exception4whatEv
libvamp-hostsdk.so.3:_ZGTtNKSt13bad_exceptionD1Ev
libvamp-hostsdk.so.3:_ZGTtNKSt13runtime_error4whatEv
libvamp-hostsdk.so.3:_ZGTtNKSt9exception4whatEv
libvamp-hostsdk.so.3:_ZGTtNKSt9exceptionD1Ev
libvamp-hostsdk.so.3:_ZGTtNSt11logic_errorC1EPKc
libvamp-hostsdk.so.3:_ZGTtNSt11logic_errorC1ERKNSt7__cxx1112basic_stringIcSt11char_traitsIcESaIcEEE
libvamp-hostsdk.so.3:_ZGTtNSt11logic_errorC2EPKc
libvamp-hostsdk.so.3:_ZGTtNSt11logic_errorC2ERKNSt7__cxx1112basic_stringIcSt11char_traitsIcESaIcEEE
libvamp-hostsdk.so.3:_ZGTtNSt11logic_errorD0Ev
libvamp-hostsdk.so.3:_ZGTtNSt11logic_errorD1Ev
libvamp-hostsdk.so.3:_ZGTtNSt11logic_errorD2Ev
libvamp-hostsdk.so.3:_ZGTtNSt11range_errorC1EPKc
libvamp-hostsdk.so.3:_ZGTtNSt11range_errorC1ERKNSt7__cxx1112basic_stringIcSt11char_traitsIcESaIcEEE
libvamp-hostsdk.so.3:_ZGTtNSt11range_errorC2EPKc
libvamp-hostsdk.so.3:_ZGTtNSt11range_errorC2ERKNSt7__cxx1112basic_stringIcSt11char_traitsIcESaIcEEE
libvamp-hostsdk.so.3:_ZGTtNSt11range_errorD0Ev
libvamp-hostsdk.so.3:_ZGTtNSt11range_errorD1Ev
libvamp-hostsdk.so.3:_ZGTtNSt11range_errorD2Ev
libvamp-hostsdk.so.3:_ZGTtNSt12domain_errorC1EPKc
libvamp-hostsdk.so.3:_ZGTtNSt12domain_errorC1ERKNSt7__cxx1112basic_stringIcSt11char_traitsIcESaIcEEE
libvamp-hostsdk.so.3:_ZGTtNSt12domain_errorC2EPKc
libvamp-hostsdk.so.3:_ZGTtNSt12domain_errorC2ERKNSt7__cxx1112basic_stringIcSt11char_traitsIcESaIcEEE
libvamp-hostsdk.so.3:_ZGTtNSt12domain_errorD0Ev
libvamp-hostsdk.so.3:_ZGTtNSt12domain_errorD1Ev
libvamp-hostsdk.so.3:_ZGTtNSt12domain_errorD2Ev
libvamp-hostsdk.so.3:_ZGTtNSt12length_errorC1EPKc
libvamp-hostsdk.so.3:_ZGTtNSt12length_errorC1ERKNSt7__cxx1112basic_stringIcSt11char_traitsIcESaIcEEE
libvamp-hostsdk.so.3:_ZGTtNSt12length_errorC2EPKc
libvamp-hostsdk.so.3:_ZGTtNSt12length_errorC2ERKNSt7__cxx1112basic_stringIcSt11char_traitsIcESaIcEEE
libvamp-hostsdk.so.3:_ZGTtNSt12length_errorD0Ev
libvamp-hostsdk.so.3:_ZGTtNSt12length_errorD1Ev
libvamp-hostsdk.so.3:_ZGTtNSt12length_errorD2Ev
libvamp-hostsdk.so.3:_ZGTtNSt12out_of_rangeC1EPKc
libvamp-hostsdk.so.3:_ZGTtNSt12out_of_rangeC1ERKNSt7__cxx1112basic_stringIcSt11char_traitsIcESaIcEEE
libvamp-hostsdk.so.3:_ZGTtNSt12out_of_rangeC2EPKc
libvamp-hostsdk.so.3:_ZGTtNSt12out_of_rangeC2ERKNSt7__cxx1112basic_stringIcSt11char_traitsIcESaIcEEE
libvamp-hostsdk.so.3:_ZGTtNSt12out_of_rangeD0Ev
libvamp-hostsdk.so.3:_ZGTtNSt12out_of_rangeD1Ev
libvamp-hostsdk.so.3:_ZGTtNSt12out_of_rangeD2Ev
libvamp-hostsdk.so.3:_ZGTtNSt13runtime_errorC1EPKc
libvamp-hostsdk.so.3:_ZGTtNSt13runtime_errorC1ERKNSt7__cxx1112basic_stringIcSt11char_traitsIcESaIcEEE
libvamp-hostsdk.so.3:_ZGTtNSt13runtime_errorC2EPKc
libvamp-hostsdk.so.3:_ZGTtNSt13runtime_errorC2ERKNSt7__cxx1112basic_stringIcSt11char_traitsIcESaIcEEE
libvamp-hostsdk.so.3:_ZGTtNSt13runtime_errorD0Ev
libvamp-hostsdk.so.3:_ZGTtNSt13runtime_errorD1Ev
libvamp-hostsdk.so.3:_ZGTtNSt13runtime_errorD2Ev
libvamp-hostsdk.so.3:_ZGTtNSt14overflow_errorC1EPKc
libvamp-hostsdk.so.3:_ZGTtNSt14overflow_errorC1ERKNSt7__cxx1112basic_stringIcSt11char_traitsIcESaIcEEE
libvamp-hostsdk.so.3:_ZGTtNSt14overflow_errorC2EPKc
libvamp-hostsdk.so.3:_ZGTtNSt14overflow_errorC2ERKNSt7__cxx1112basic_stringIcSt11char_traitsIcESaIcEEE
libvamp-hostsdk.so.3:_ZGTtNSt14overflow_errorD0Ev
libvamp-hostsdk.so.3:_ZGTtNSt14overflow_errorD1Ev
libvamp-hostsdk.so.3:_ZGTtNSt14overflow_errorD2Ev
libvamp-hostsdk.so.3:_ZGTtNSt15underflow_errorC1EPKc
libvamp-hostsdk.so.3:_ZGTtNSt15underflow_errorC1ERKNSt7__cxx1112basic_stringIcSt11char_traitsIcESaIcEEE
libvamp-hostsdk.so.3:_ZGTtNSt15underflow_errorC2EPKc
libvamp-hostsdk.so.3:_ZGTtNSt15underflow_errorC2ERKNSt7__cxx1112basic_stringIcSt11char_traitsIcESaIcEEE
libvamp-hostsdk.so.3:_ZGTtNSt15underflow_errorD0Ev
libvamp-hostsdk.so.3:_ZGTtNSt15underflow_errorD1Ev
libvamp-hostsdk.so.3:_ZGTtNSt15underflow_errorD2Ev
libvamp-hostsdk.so.3:_ZGTtNSt16invalid_argumentC1EPKc
libvamp-hostsdk.so.3:_ZGTtNSt16invalid_argumentC1ERKNSt7__cxx1112basic_stringIcSt11char_traitsIcESaIcEEE
libvamp-hostsdk.so.3:_ZGTtNSt16invalid_argumentC2EPKc
libvamp-hostsdk.so.3:_ZGTtNSt16invalid_argumentC2ERKNSt7__cxx1112basic_stringIcSt11char_traitsIcESaIcEEE
libvamp-hostsdk.so.3:_ZGTtNSt16invalid_argumentD0Ev
libvamp-hostsdk.so.3:_ZGTtNSt16invalid_argumentD1Ev
libvamp-hostsdk.so.3:_ZGTtNSt16invalid_argumentD2Ev
libvamp-hostsdk.so.3:_ZN10__cxxabiv111__terminateEPFvvE
libvamp-hostsdk.so.3:_ZN10__cxxabiv112__unexpectedEPFvvE
libvamp-hostsdk.so.3:_ZN10__cxxabiv115__forced_unwindD0Ev
libvamp-hostsdk.so.3:_ZN10__cxxabiv115__forced_unwindD1Ev
libvamp-hostsdk.so.3:_ZN10__cxxabiv115__forced_unwindD2Ev
libvamp-hostsdk.so.3:_ZN10__cxxabiv117__class_type_infoD0Ev
libvamp-hostsdk.so.3:_ZN10__cxxabiv117__class_type_infoD1Ev
libvamp-hostsdk.so.3:_ZN10__cxxabiv117__class_type_infoD2Ev
libvamp-hostsdk.so.3:_ZN10__cxxabiv119__foreign_exceptionD0Ev
libvamp-hostsdk.so.3:_ZN10__cxxabiv119__foreign_exceptionD1Ev
libvamp-hostsdk.so.3:_ZN10__cxxabiv119__foreign_exceptionD2Ev
libvamp-hostsdk.so.3:_ZN10__cxxabiv120__si_class_type_infoD0Ev
libvamp-hostsdk.so.3:_ZN10__cxxabiv120__si_class_type_infoD1Ev
libvamp-hostsdk.so.3:_ZN10__cxxabiv120__si_class_type_infoD2Ev
libvamp-hostsdk.so.3:_ZN10__cxxabiv121__vmi_class_type_infoD0Ev
libvamp-hostsdk.so.3:_ZN10__cxxabiv121__vmi_class_type_infoD1Ev
libvamp-hostsdk.so.3:_ZN10__cxxabiv121__vmi_class_type_infoD2Ev
libvamp-hostsdk.so.3:_ZN5Files10getEnvUtf8ENSt7__cxx1112basic_stringIcSt11char_traitsIcESaIcEEERS5_
libvamp-hostsdk.so.3:_ZN5Files10lcBasenameENSt7__cxx1112basic_stringIcSt11char_traitsIcESaIcEEE
libvamp-hostsdk.so.3:_ZN5Files10splicePathENSt7__cxx1112basic_stringIcSt11char_traitsIcESaIcEEES5_
libvamp-hostsdk.so.3:_ZN5Files11loadLibraryENSt7__cxx1112basic_stringIcSt11char_traitsIcESaIcEEE
libvamp-hostsdk.so.3:_ZN5Files13unloadLibraryEPv
libvamp-hostsdk.so.3:_ZN5Files15lookupInLibraryEPvPKc
libvamp-hostsdk.so.3:_ZN5Files16isNonNative32BitEv
libvamp-hostsdk.so.3:_ZN5Files16listLibraryFilesB5cxx11Ev
libvamp-hostsdk.so.3:_ZN5Files24listLibraryFilesMatchingB5cxx11ENS_6FilterE
libvamp-hostsdk.so.3:_ZN5Files9listFilesENSt7__cxx1112basic_stringIcSt11char_traitsIcESaIcEEES5_
libvamp-hostsdk.so.3:_ZN9_VampHost4Kiss13vamp_kiss_fftEPNS0_19vamp_kiss_fft_stateEPKNS0_17vamp_kiss_fft_cpxEPS3_
libvamp-hostsdk.so.3:_ZN9_VampHost4Kiss14vamp_kiss_fftrEPNS0_20vamp_kiss_fftr_stateEPKdPNS0_17vamp_kiss_fft_cpxE
libvamp-hostsdk.so.3:_ZN9_VampHost4Kiss15vamp_kiss_fftriEPNS0_20vamp_kiss_fftr_stateEPKNS0_17vamp_kiss_fft_cpxEPd
libvamp-hostsdk.so.3:_ZN9_VampHost4Kiss18vamp_kiss_fft_freeEPv
libvamp-hostsdk.so.3:_ZN9_VampHost4Kiss19vamp_kiss_fft_allocEiiPvPm
libvamp-hostsdk.so.3:_ZN9_VampHost4Kiss19vamp_kiss_fftr_freeEPv
libvamp-hostsdk.so.3:_ZN9_VampHost4Kiss20vamp_kiss_fft_strideEPNS0_19vamp_kiss_fft_stateEPKNS0_17vamp_kiss_fft_cpxEPS3_i
libvamp-hostsdk.so.3:_ZN9_VampHost4Kiss20vamp_kiss_fftr_allocEiiPvPm
libvamp-hostsdk.so.3:_ZN9_VampHost4Kiss21vamp_kiss_fft_cleanupEv
libvamp-hostsdk.so.3:_ZN9_VampHost4Kiss28vamp_kiss_fft_next_fast_sizeEi
libvamp-hostsdk.so.3:_ZN9_VampHost4Vamp17PluginHostAdapter10initialiseEmmm
libvamp-hostsdk.so.3:_ZN9_VampHost4Vamp17PluginHostAdapter12setParameterENSt7__cxx1112basic_stringIcSt11char_traitsIcESaIcEEEf
libvamp-hostsdk.so.3:_ZN9_VampHost4Vamp17PluginHostAdapter13getPluginPathB5cxx11Ev
libvamp-hostsdk.so.3:_ZN9_VampHost4Vamp17PluginHostAdapter13selectProgramENSt7__cxx1112basic_stringIcSt11char_traitsIcESaIcEEE
libvamp-hostsdk.so.3:_ZN9_VampHost4Vamp17PluginHostAdapter15convertFeaturesEP16_VampFeatureListRSt3mapIiSt6vectorINS0_6Plugin7FeatureESaIS7_EESt4lessIiESaISt4pairIKiS9_EEE
libvamp-hostsdk.so.3:_ZN9_VampHost4Vamp17PluginHostAdapter20getRemainingFeaturesEv
libvamp-hostsdk.so.3:_ZN9_VampHost4Vamp17PluginHostAdapter5resetEv
libvamp-hostsdk.so.3:_ZN9_VampHost4Vamp17PluginHostAdapter7processEPKPKfNS0_8RealTimeE
libvamp-hostsdk.so.3:_ZN9_VampHost4Vamp17PluginHostAdapterC1EPK21_VampPluginDescriptorf
libvamp-hostsdk.so.3:_ZN9_VampHost4Vamp17PluginHostAdapterC2EPK21_VampPluginDescriptorf
libvamp-hostsdk.so.3:_ZN9_VampHost4Vamp17PluginHostAdapterD0Ev
libvamp-hostsdk.so.3:_ZN9_VampHost4Vamp17PluginHostAdapterD1Ev
libvamp-hostsdk.so.3:_ZN9_VampHost4Vamp17PluginHostAdapterD2Ev
libvamp-hostsdk.so.3:_ZN9_VampHost4Vamp7HostExt12PluginLoader10loadPluginENSt7__cxx1112basic_stringIcSt11char_traitsIcESaIcEEEfi
libvamp-hostsdk.so.3:_ZN9_VampHost4Vamp7HostExt12PluginLoader11getInstanceEv
libvamp-hostsdk.so.3:_ZN9_VampHost4Vamp7HostExt12PluginLoader11listPluginsB5cxx11Ev
libvamp-hostsdk.so.3:_ZN9_VampHost4Vamp7HostExt12PluginLoader13listPluginsInESt6vectorINSt7__cxx1112basic_stringIcSt11char_traitsIcESaIcEEESaIS9_EE
libvamp-hostsdk.so.3:_ZN9_VampHost4Vamp7HostExt12PluginLoader16composePluginKeyENSt7__cxx1112basic_stringIcSt11char_traitsIcESaIcEEES8_
libvamp-hostsdk.so.3:_ZN9_VampHost4Vamp7HostExt12PluginLoader16listPluginsNotInESt6vectorINSt7__cxx1112basic_stringIcSt11char_traitsIcESaIcEEESaIS9_EE
libvamp-hostsdk.so.3:_ZN9_VampHost4Vamp7HostExt12PluginLoader17getPluginCategoryENSt7__cxx1112basic_stringIcSt11char_traitsIcESaIcEEE
libvamp-hostsdk.so.3:_ZN9_VampHost4Vamp7HostExt12PluginLoader23getLibraryPathForPluginENSt7__cxx1112basic_stringIcSt11char_traitsIcESaIcEEE
libvamp-hostsdk.so.3:_ZN9_VampHost4Vamp7HostExt12PluginLoader4Impl10loadPluginENSt7__cxx1112basic_stringIcSt11char_traitsIcESaIcEEEfi
libvamp-hostsdk.so.3:_ZN9_VampHost4Vamp7HostExt12PluginLoader4Impl11listPluginsB5cxx11Ev
libvamp-hostsdk.so.3:_ZN9_VampHost4Vamp7HostExt12PluginLoader4Impl13listPluginsInESt6vectorINSt7__cxx1112basic_stringIcSt11char_traitsIcESaIcEEESaISA_EE
libvamp-hostsdk.so.3:_ZN9_VampHost4Vamp7HostExt12PluginLoader4Impl13pluginDeletedEPNS3_27PluginDeletionNotifyAdapterE
libvamp-hostsdk.so.3:_ZN9_VampHost4Vamp7HostExt12PluginLoader4Impl16composePluginKeyENSt7__cxx1112basic_stringIcSt11char_traitsIcESaIcEEES9_
libvamp-hostsdk.so.3:_ZN9_VampHost4Vamp7HostExt12PluginLoader4Impl16enumeratePluginsB5cxx11ENS3_11EnumerationE
libvamp-hostsdk.so.3:_ZN9_VampHost4Vamp7HostExt12PluginLoader4Impl16generateTaxonomyEv
libvamp-hostsdk.so.3:_ZN9_VampHost4Vamp7HostExt12PluginLoader4Impl16listPluginsNotInESt6vectorINSt7__cxx1112basic_stringIcSt11char_traitsIcESaIcEEESaISA_EE
libvamp-hostsdk.so.3:_ZN9_VampHost4Vamp7HostExt12PluginLoader4Impl17getPluginCategoryENSt7__cxx1112basic_stringIcSt11char_traitsIcESaIcEEE
libvamp-hostsdk.so.3:_ZN9_VampHost4Vamp7HostExt12PluginLoader4Impl18decomposePluginKeyENSt7__cxx1112basic_stringIcSt11char_traitsIcESaIcEEERS9_SA_
libvamp-hostsdk.so.3:_ZN9_VampHost4Vamp7HostExt12PluginLoader4Impl18setInstanceToCleanEPS2_
libvamp-hostsdk.so.3:_ZN9_VampHost4Vamp7HostExt12PluginLoader4Impl19listLibraryFilesForB5cxx11ENS3_11EnumerationE
libvamp-hostsdk.so.3:_ZN9_VampHost4Vamp7HostExt12PluginLoader4Impl23getLibraryPathForPluginENSt7__cxx1112basic_stringIcSt11char_traitsIcESaIcEEE
libvamp-hostsdk.so.3:_ZN9_VampHost4Vamp7HostExt12PluginLoader4Impl27PluginDeletionNotifyAdapterC1EPNS0_6PluginEPS3_
libvamp-hostsdk.so.3:_ZN9_VampHost4Vamp7HostExt12PluginLoader4Impl27PluginDeletionNotifyAdapterC2EPNS0_6PluginEPS3_
libvamp-hostsdk.so.3:_ZN9_VampHost4Vamp7HostExt12PluginLoader4Impl27PluginDeletionNotifyAdapterD0Ev
libvamp-hostsdk.so.3:_ZN9_VampHost4Vamp7HostExt12PluginLoader4Impl27PluginDeletionNotifyAdapterD1Ev
libvamp-hostsdk.so.3:_ZN9_VampHost4Vamp7HostExt12PluginLoader4Impl27PluginDeletionNotifyAdapterD2Ev
libvamp-hostsdk.so.3:_ZN9_VampHost4Vamp7HostExt12PluginLoader4ImplC1Ev
libvamp-hostsdk.so.3:_ZN9_VampHost4Vamp7HostExt12PluginLoader4ImplC2Ev
libvamp-hostsdk.so.3:_ZN9_VampHost4Vamp7HostExt12PluginLoader4ImplD0Ev
libvamp-hostsdk.so.3:_ZN9_VampHost4Vamp7HostExt12PluginLoader4ImplD1Ev
libvamp-hostsdk.so.3:_ZN9_VampHost4Vamp7HostExt12PluginLoader4ImplD2Ev
libvamp-hostsdk.so.3:_ZN9_VampHost4Vamp7HostExt12PluginLoaderC1Ev
libvamp-hostsdk.so.3:_ZN9_VampHost4Vamp7HostExt12PluginLoaderC2Ev
libvamp-hostsdk.so.3:_ZN9_VampHost4Vamp7HostExt12PluginLoaderD0Ev
libvamp-hostsdk.so.3:_ZN9_VampHost4Vamp7HostExt12PluginLoaderD1Ev
libvamp-hostsdk.so.3:_ZN9_VampHost4Vamp7HostExt12PluginLoaderD2Ev
libvamp-hostsdk.so.3:_ZN9_VampHost4Vamp7HostExt13PluginWrapper10initialiseEmmm
libvamp-hostsdk.so.3:_ZN9_VampHost4Vamp7HostExt13PluginWrapper12disownPluginEv
libvamp-hostsdk.so.3:_ZN9_VampHost4Vamp7HostExt13PluginWrapper12setParameterENSt7__cxx1112basic_stringIcSt11char_traitsIcESaIcEEEf
libvamp-hostsdk.so.3:_ZN9_VampHost4Vamp7HostExt13PluginWrapper13selectProgramENSt7__cxx1112basic_stringIcSt11char_traitsIcESaIcEEE
libvamp-hostsdk.so.3:_ZN9_VampHost4Vamp7HostExt13PluginWrapper20getRemainingFeaturesEv
libvamp-hostsdk.so.3:_ZN9_VampHost4Vamp7HostExt13PluginWrapper5resetEv
libvamp-hostsdk.so.3:_ZN9_VampHost4Vamp7HostExt13PluginWrapper7processEPKPKfNS0_8RealTimeE
libvamp-hostsdk.so.3:_ZN9_VampHost4Vamp7HostExt13PluginWrapperC1EPNS0_6PluginE
libvamp-hostsdk.so.3:_ZN9_VampHost4Vamp7HostExt13PluginWrapperC2EPNS0_6PluginE
libvamp-hostsdk.so.3:_ZN9_VampHost4Vamp7HostExt13PluginWrapperD0Ev
libvamp-hostsdk.so.3:_ZN9_VampHost4Vamp7HostExt13PluginWrapperD1Ev
libvamp-hostsdk.so.3:_ZN9_VampHost4Vamp7HostExt13PluginWrapperD2Ev
libvamp-hostsdk.so.3:_ZN9_VampHost4Vamp7HostExt20PluginChannelAdapter10initialiseEmmm
libvamp-hostsdk.so.3:_ZN9_VampHost4Vamp7HostExt20PluginChannelAdapter18processInterleavedEPKfNS0_8RealTimeE
libvamp-hostsdk.so.3:_ZN9_VampHost4Vamp7HostExt20PluginChannelAdapter4Impl10initialiseEmmm
libvamp-hostsdk.so.3:_ZN9_VampHost4Vamp7HostExt20PluginChannelAdapter4Impl18processInterleavedEPKfNS0_8RealTimeE
libvamp-hostsdk.so.3:_ZN9_VampHost4Vamp7HostExt20PluginChannelAdapter4Impl7processEPKPKfNS0_8RealTimeE
libvamp-hostsdk.so.3:_ZN9_VampHost4Vamp7HostExt20PluginChannelAdapter4ImplC1EPNS0_6PluginE
libvamp-hostsdk.so.3:_ZN9_VampHost4Vamp7HostExt20PluginChannelAdapter4ImplC2EPNS0_6PluginE
libvamp-hostsdk.so.3:_ZN9_VampHost4Vamp7HostExt20PluginChannelAdapter4ImplD1Ev
libvamp-hostsdk.so.3:_ZN9_VampHost4Vamp7HostExt20PluginChannelAdapter4ImplD2Ev
libvamp-hostsdk.so.3:_ZN9_VampHost4Vamp7HostExt20PluginChannelAdapter7processEPKPKfNS0_8RealTimeE
libvamp-hostsdk.so.3:_ZN9_VampHost4Vamp7HostExt20PluginChannelAdapterC1EPNS0_6PluginE
libvamp-hostsdk.so.3:_ZN9_VampHost4Vamp7HostExt20PluginChannelAdapterC2EPNS0_6PluginE
libvamp-hostsdk.so.3:_ZN9_VampHost4Vamp7HostExt20PluginChannelAdapterD0Ev
libvamp-hostsdk.so.3:_ZN9_VampHost4Vamp7HostExt20PluginChannelAdapterD1Ev
libvamp-hostsdk.so.3:_ZN9_VampHost4Vamp7HostExt20PluginChannelAdapterD2Ev
libvamp-hostsdk.so.3:_ZN9_VampHost4Vamp7HostExt22PluginBufferingAdapter10initialiseEmmm
libvamp-hostsdk.so.3:_ZN9_VampHost4Vamp7HostExt22PluginBufferingAdapter12setParameterENSt7__cxx1112basic_stringIcSt11char_traitsIcESaIcEEEf
libvamp-hostsdk.so.3:_ZN9_VampHost4Vamp7HostExt22PluginBufferingAdapter13selectProgramENSt7__cxx1112basic_stringIcSt11char_traitsIcESaIcEEE
libvamp-hostsdk.so.3:_ZN9_VampHost4Vamp7HostExt22PluginBufferingAdapter17setPluginStepSizeEm
libvamp-hostsdk.so.3:_ZN9_VampHost4Vamp7HostExt22PluginBufferingAdapter18setPluginBlockSizeEm
libvamp-hostsdk.so.3:_ZN9_VampHost4Vamp7HostExt22PluginBufferingAdapter20getRemainingFeaturesEv
libvamp-hostsdk.so.3:_ZN9_VampHost4Vamp7HostExt22PluginBufferingAdapter26getActualStepAndBlockSizesERmS3_
libvamp-hostsdk.so.3:_ZN9_VampHost4Vamp7HostExt22PluginBufferingAdapter4Impl10initialiseEmmm
libvamp-hostsdk.so.3:_ZN9_VampHost4Vamp7HostExt22PluginBufferingAdapter4Impl12processBlockERSt3mapIiSt6vectorINS0_6Plugin7FeatureESaIS7_EESt4lessIiESaISt4pairIKiS9_EEE
libvamp-hostsdk.so.3:_ZN9_VampHost4Vamp7HostExt22PluginBufferingAdapter4Impl12setParameterENSt7__cxx1112basic_stringIcSt11char_traitsIcESaIcEEEf
libvamp-hostsdk.so.3:_ZN9_VampHost4Vamp7HostExt22PluginBufferingAdapter4Impl13selectProgramENSt7__cxx1112basic_stringIcSt11char_traitsIcESaIcEEE
libvamp-hostsdk.so.3:_ZN9_VampHost4Vamp7HostExt22PluginBufferingAdapter4Impl17setPluginStepSizeEm
libvamp-hostsdk.so.3:_ZN9_VampHost4Vamp7HostExt22PluginBufferingAdapter4Impl18setPluginBlockSizeEm
libvamp-hostsdk.so.3:_ZN9_VampHost4Vamp7HostExt22PluginBufferingAdapter4Impl20getRemainingFeaturesEv
libvamp-hostsdk.so.3:_ZN9_VampHost4Vamp7HostExt22PluginBufferingAdapter4Impl26adjustFixedRateFeatureTimeEiRNS0_6Plugin7FeatureE
libvamp-hostsdk.so.3:_ZN9_VampHost4Vamp7HostExt22PluginBufferingAdapter4Impl26getActualStepAndBlockSizesERmS4_
libvamp-hostsdk.so.3:_ZN9_VampHost4Vamp7HostExt22PluginBufferingAdapter4Impl5resetEv
libvamp-hostsdk.so.3:_ZN9_VampHost4Vamp7HostExt22PluginBufferingAdapter4Impl7processEPKPKfNS0_8RealTimeE
libvamp-hostsdk.so.3:_ZN9_VampHost4Vamp7HostExt22PluginBufferingAdapter4ImplC1EPNS0_6PluginEf
libvamp-hostsdk.so.3:_ZN9_VampHost4Vamp7HostExt22PluginBufferingAdapter4ImplC2EPNS0_6PluginEf
libvamp-hostsdk.so.3:_ZN9_VampHost4Vamp7HostExt22PluginBufferingAdapter4ImplD1Ev
libvamp-hostsdk.so.3:_ZN9_VampHost4Vamp7HostExt22PluginBufferingAdapter4ImplD2Ev
libvamp-hostsdk.so.3:_ZN9_VampHost4Vamp7HostExt22PluginBufferingAdapter5resetEv
libvamp-hostsdk.so.3:_ZN9_VampHost4Vamp7HostExt22PluginBufferingAdapter7processEPKPKfNS0_8RealTimeE
libvamp-hostsdk.so.3:_ZN9_VampHost4Vamp7HostExt22PluginBufferingAdapterC1EPNS0_6PluginE
libvamp-hostsdk.so.3:_ZN9_VampHost4Vamp7HostExt22PluginBufferingAdapterC2EPNS0_6PluginE
libvamp-hostsdk.so.3:_ZN9_VampHost4Vamp7HostExt22PluginBufferingAdapterD0Ev
libvamp-hostsdk.so.3:_ZN9_VampHost4Vamp7HostExt22PluginBufferingAdapterD1Ev
libvamp-hostsdk.so.3:_ZN9_VampHost4Vamp7HostExt22PluginBufferingAdapterD2Ev
libvamp-hostsdk.so.3:_ZN9_VampHost4Vamp7HostExt24PluginInputDomainAdapter10initialiseEmmm
libvamp-hostsdk.so.3:_ZN9_VampHost4Vamp7HostExt24PluginInputDomainAdapter13setWindowTypeENS2_10WindowTypeE
libvamp-hostsdk.so.3:_ZN9_VampHost4Vamp7HostExt24PluginInputDomainAdapter25setProcessTimestampMethodENS2_22ProcessTimestampMethodE
libvamp-hostsdk.so.3:_ZN9_VampHost4Vamp7HostExt24PluginInputDomainAdapter4Impl10initialiseEmmm
libvamp-hostsdk.so.3:_ZN9_VampHost4Vamp7HostExt24PluginInputDomainAdapter4Impl13setWindowTypeENS2_10WindowTypeE
libvamp-hostsdk.so.3:_ZN9_VampHost4Vamp7HostExt24PluginInputDomainAdapter4Impl19processShiftingDataEPKPKfNS0_8RealTimeE
libvamp-hostsdk.so.3:_ZN9_VampHost4Vamp7HostExt24PluginInputDomainAdapter4Impl24processShiftingTimestampEPKPKfNS0_8RealTimeE
libvamp-hostsdk.so.3:_ZN9_VampHost4Vamp7HostExt24PluginInputDomainAdapter4Impl25setProcessTimestampMethodENS2_22ProcessTimestampMethodE
libvamp-hostsdk.so.3:_ZN9_VampHost4Vamp7HostExt24PluginInputDomainAdapter4Impl5resetEv
libvamp-hostsdk.so.3:_ZN9_VampHost4Vamp7HostExt24PluginInputDomainAdapter4Impl7processEPKPKfNS0_8RealTimeE
libvamp-hostsdk.so.3:_ZN9_VampHost4Vamp7HostExt24PluginInputDomainAdapter4ImplC1EPNS0_6PluginEf
libvamp-hostsdk.so.3:_ZN9_VampHost4Vamp7HostExt24PluginInputDomainAdapter4ImplC2EPNS0_6PluginEf
libvamp-hostsdk.so.3:_ZN9_VampHost4Vamp7HostExt24PluginInputDomainAdapter4ImplD1Ev
libvamp-hostsdk.so.3:_ZN9_VampHost4Vamp7HostExt24PluginInputDomainAdapter4ImplD2Ev
libvamp-hostsdk.so.3:_ZN9_VampHost4Vamp7HostExt24PluginInputDomainAdapter5resetEv
libvamp-hostsdk.so.3:_ZN9_VampHost4Vamp7HostExt24PluginInputDomainAdapter7processEPKPKfNS0_8RealTimeE
libvamp-hostsdk.so.3:_ZN9_VampHost4Vamp7HostExt24PluginInputDomainAdapterC1EPNS0_6PluginE
libvamp-hostsdk.so.3:_ZN9_VampHost4Vamp7HostExt24PluginInputDomainAdapterC2EPNS0_6PluginE
libvamp-hostsdk.so.3:_ZN9_VampHost4Vamp7HostExt24PluginInputDomainAdapterD0Ev
libvamp-hostsdk.so.3:_ZN9_VampHost4Vamp7HostExt24PluginInputDomainAdapterD1Ev
libvamp-hostsdk.so.3:_ZN9_VampHost4Vamp7HostExt24PluginInputDomainAdapterD2Ev
libvamp-hostsdk.so.3:_ZN9_VampHost4Vamp7HostExt24PluginSummarisingAdapter10initialiseEmmm
libvamp-hostsdk.so.3:_ZN9_VampHost4Vamp7HostExt24PluginSummarisingAdapter19getSummaryForOutputEiNS2_11SummaryTypeENS2_15AveragingMethodE
libvamp-hostsdk.so.3:_ZN9_VampHost4Vamp7HostExt24PluginSummarisingAdapter20getRemainingFeaturesEv
libvamp-hostsdk.so.3:_ZN9_VampHost4Vamp7HostExt24PluginSummarisingAdapter23getSummaryForAllOutputsENS2_11SummaryTypeENS2_15AveragingMethodE
libvamp-hostsdk.so.3:_ZN9_VampHost4Vamp7HostExt24PluginSummarisingAdapter27setSummarySegmentBoundariesERKSt3setINS0_8RealTimeESt4lessIS4_ESaIS4_EE
libvamp-hostsdk.so.3:_ZN9_VampHost4Vamp7HostExt24PluginSummarisingAdapter4Impl10accumulateERKSt3mapIiSt6vectorINS0_6Plugin7FeatureESaIS7_EESt4lessIiESaISt4pairIKiS9_EEENS0_8RealTimeEb
libvamp-hostsdk.so.3:_ZN9_VampHost4Vamp7HostExt24PluginSummarisingAdapter4Impl10accumulateEiRKNS0_6Plugin7FeatureENS0_8RealTimeEb
libvamp-hostsdk.so.3:_ZN9_VampHost4Vamp7HostExt24PluginSummarisingAdapter4Impl10initialiseEmmm
libvamp-hostsdk.so.3:_ZN9_VampHost4Vamp7HostExt24PluginSummarisingAdapter4Impl15getSummaryLabelB5cxx11ENS2_11SummaryTypeENS2_15AveragingMethodE
libvamp-hostsdk.so.3:_ZN9_VampHost4Vamp7HostExt24PluginSummarisingAdapter4Impl17findSegmentBoundsENS0_8RealTimeERS4_S5_
libvamp-hostsdk.so.3:_ZN9_VampHost4Vamp7HostExt24PluginSummarisingAdapter4Impl19getSummaryForOutputEiNS2_11SummaryTypeENS2_15AveragingMethodE
libvamp-hostsdk.so.3:_ZN9_VampHost4Vamp7HostExt24PluginSummarisingAdapter4Impl20getRemainingFeaturesEv
libvamp-hostsdk.so.3:_ZN9_VampHost4Vamp7HostExt24PluginSummarisingAdapter4Impl23getSummaryForAllOutputsENS2_11SummaryTypeENS2_15AveragingMethodE
libvamp-hostsdk.so.3:_ZN9_VampHost4Vamp7HostExt24PluginSummarisingAdapter4Impl24accumulateFinalDurationsEv
libvamp-hostsdk.so.3:_ZN9_VampHost4Vamp7HostExt24PluginSummarisingAdapter4Impl27setSummarySegmentBoundariesERKSt3setINS0_8RealTimeESt4lessIS5_ESaIS5_EE
libvamp-hostsdk.so.3:_ZN9_VampHost4Vamp7HostExt24PluginSummarisingAdapter4Impl5resetEv
libvamp-hostsdk.so.3:_ZN9_VampHost4Vamp7HostExt24PluginSummarisingAdapter4Impl6reduceEv
libvamp-hostsdk.so.3:_ZN9_VampHost4Vamp7HostExt24PluginSummarisingAdapter4Impl7processEPKPKfNS0_8RealTimeE
libvamp-hostsdk.so.3:_ZN9_VampHost4Vamp7HostExt24PluginSummarisingAdapter4Impl7segmentEv
libvamp-hostsdk.so.3:_ZN9_VampHost4Vamp7HostExt24PluginSummarisingAdapter4ImplC1EPNS0_6PluginEf
libvamp-hostsdk.so.3:_ZN9_VampHost4Vamp7HostExt24PluginSummarisingAdapter4ImplC2EPNS0_6PluginEf
libvamp-hostsdk.so.3:_ZN9_VampHost4Vamp7HostExt24PluginSummarisingAdapter4ImplD1Ev
libvamp-hostsdk.so.3:_ZN9_VampHost4Vamp7HostExt24PluginSummarisingAdapter4ImplD2Ev
libvamp-hostsdk.so.3:_ZN9_VampHost4Vamp7HostExt24PluginSummarisingAdapter5resetEv
libvamp-hostsdk.so.3:_ZN9_VampHost4Vamp7HostExt24PluginSummarisingAdapter7processEPKPKfNS0_8RealTimeE
libvamp-hostsdk.so.3:_ZN9_VampHost4Vamp7HostExt24PluginSummarisingAdapterC1EPNS0_6PluginE
libvamp-hostsdk.so.3:_ZN9_VampHost4Vamp7HostExt24PluginSummarisingAdapterC2EPNS0_6PluginE
libvamp-hostsdk.so.3:_ZN9_VampHost4Vamp7HostExt24PluginSummarisingAdapterD0Ev
libvamp-hostsdk.so.3:_ZN9_VampHost4Vamp7HostExt24PluginSummarisingAdapterD1Ev
libvamp-hostsdk.so.3:_ZN9_VampHost4Vamp7HostExt24PluginSummarisingAdapterD2Ev
libvamp-hostsdk.so.3:_ZN9_VampHost4Vamp8RealTime11fromSecondsEd
libvamp-hostsdk.so.3:_ZN9_VampHost4Vamp8RealTime11fromTimevalERK7timeval
libvamp-hostsdk.so.3:_ZN9_VampHost4Vamp8RealTime14frame2RealTimeElj
libvamp-hostsdk.so.3:_ZN9_VampHost4Vamp8RealTime14realTime2FrameERKS1_j
libvamp-hostsdk.so.3:_ZN9_VampHost4Vamp8RealTime16fromMillisecondsEi
libvamp-hostsdk.so.3:_ZN9_VampHost4Vamp8RealTimeC1Eii
libvamp-hostsdk.so.3:_ZN9_VampHost4Vamp8RealTimeC2Eii
libvamp-hostsdk.so.3:_ZN9_VampHost4VamplsERSoRKNS0_8RealTimeE
libvamp-hostsdk.so.3:_ZN9__gnu_cxx15__concat_size_tEPcmm
libvamp-hostsdk.so.3:_ZN9__gnu_cxx15__snprintf_liteEPcmPKcP13__va_list_tag
libvamp-hostsdk.so.3:_ZN9__gnu_cxx20recursive_init_errorC1Ev
libvamp-hostsdk.so.3:_ZN9__gnu_cxx20recursive_init_errorC2Ev
libvamp-hostsdk.so.3:_ZN9__gnu_cxx20recursive_init_errorD0Ev
libvamp-hostsdk.so.3:_ZN9__gnu_cxx20recursive_init_errorD1Ev
libvamp-hostsdk.so.3:_ZN9__gnu_cxx20recursive_init_errorD2Ev
libvamp-hostsdk.so.3:_ZN9__gnu_cxx26__throw_insufficient_spaceEPKcS1_
libvamp-hostsdk.so.3:_ZN9__gnu_cxx27__verbose_terminate_handlerEv
libvamp-hostsdk.so.3:_ZN9__gnu_cxx9__freeresEv
libvamp-hostsdk.so.3:_ZNK10__cxxabiv117__class_type_info10__do_catchEPKSt9type_infoPPvj
libvamp-hostsdk.so.3:_ZNK10__cxxabiv117__class_type_info11__do_upcastEPKS0_PKvRNS0_15__upcast_resultE
libvamp-hostsdk.so.3:_ZNK10__cxxabiv117__class_type_info11__do_upcastEPKS0_PPv
libvamp-hostsdk.so.3:_ZNK10__cxxabiv117__class_type_info12__do_dyncastElNS0_10__sub_kindEPKS0_PKvS3_S5_RNS0_16__dyncast_resultE
libvamp-hostsdk.so.3:_ZNK10__cxxabiv117__class_type_info20__do_find_public_srcElPKvPKS0_S2_
libvamp-hostsdk.so.3:_ZNK10__cxxabiv120__si_class_type_info11__do_upcastEPKNS_17__class_type_infoEPKvRNS1_15__upcast_resultE
libvamp-hostsdk.so.3:_ZNK10__cxxabiv120__si_class_type_info12__do_dyncastElNS_17__class_type_info10__sub_kindEPKS1_PKvS4_S6_RNS1_16__dyncast_resultE
libvamp-hostsdk.so.3:_ZNK10__cxxabiv120__si_class_type_info20__do_find_public_srcElPKvPKNS_17__class_type_infoES2_
libvamp-hostsdk.so.3:_ZNK10__cxxabiv121__vmi_class_type_info11__do_upcastEPKNS_17__class_type_infoEPKvRNS1_15__upcast_resultE
libvamp-hostsdk.so.3:_ZNK10__cxxabiv121__vmi_class_type_info12__do_dyncastElNS_17__class_type_info10__sub_kindEPKS1_PKvS4_S6_RNS1_16__dyncast_resultE
libvamp-hostsdk.so.3:_ZNK10__cxxabiv121__vmi_class_type_info20__do_find_public_srcElPKvPKNS_17__class_type_infoES2_
libvamp-hostsdk.so.3:_ZNK9_VampHost4Vamp17PluginHostAdapter11getProgramsB5cxx11Ev
libvamp-hostsdk.so.3:_ZNK9_VampHost4Vamp17PluginHostAdapter12getCopyrightB5cxx11Ev
libvamp-hostsdk.so.3:_ZNK9_VampHost4Vamp17PluginHostAdapter12getParameterENSt7__cxx1112basic_stringIcSt11char_traitsIcESaIcEEE
libvamp-hostsdk.so.3:_ZNK9_VampHost4Vamp17PluginHostAdapter13getIdentifierB5cxx11Ev
libvamp-hostsdk.so.3:_ZNK9_VampHost4Vamp17PluginHostAdapter14getDescriptionB5cxx11Ev
libvamp-hostsdk.so.3:_ZNK9_VampHost4Vamp17PluginHostAdapter14getInputDomainEv
libvamp-hostsdk.so.3:_ZNK9_VampHost4Vamp17PluginHostAdapter16getPluginVersionEv
libvamp-hostsdk.so.3:_ZNK9_VampHost4Vamp17PluginHostAdapter17getCurrentProgramB5cxx11Ev
libvamp-hostsdk.so.3:_ZNK9_VampHost4Vamp17PluginHostAdapter17getVampApiVersionEv
libvamp-hostsdk.so.3:_ZNK9_VampHost4Vamp17PluginHostAdapter18getMaxChannelCountEv
libvamp-hostsdk.so.3:_ZNK9_VampHost4Vamp17PluginHostAdapter18getMinChannelCountEv
libvamp-hostsdk.so.3:_ZNK9_VampHost4Vamp17PluginHostAdapter20getOutputDescriptorsEv
libvamp-hostsdk.so.3:_ZNK9_VampHost4Vamp17PluginHostAdapter20getPreferredStepSizeEv
libvamp-hostsdk.so.3:_ZNK9_VampHost4Vamp17PluginHostAdapter21getPreferredBlockSizeEv
libvamp-hostsdk.so.3:_ZNK9_VampHost4Vamp17PluginHostAdapter23getParameterDescriptorsEv
libvamp-hostsdk.so.3:_ZNK9_VampHost4Vamp17PluginHostAdapter7getNameB5cxx11Ev
libvamp-hostsdk.so.3:_ZNK9_VampHost4Vamp17PluginHostAdapter8getMakerB5cxx11Ev
libvamp-hostsdk.so.3:_ZNK9_VampHost4Vamp7HostExt13PluginWrapper11getProgramsB5cxx11Ev
libvamp-hostsdk.so.3:_ZNK9_VampHost4Vamp7HostExt13PluginWrapper12getCopyrightB5cxx11Ev
libvamp-hostsdk.so.3:_ZNK9_VampHost4Vamp7HostExt13PluginWrapper12getParameterENSt7__cxx1112basic_stringIcSt11char_traitsIcESaIcEEE
libvamp-hostsdk.so.3:_ZNK9_VampHost4Vamp7HostExt13PluginWrapper13getIdentifierB5cxx11Ev
libvamp-hostsdk.so.3:_ZNK9_VampHost4Vamp7HostExt13PluginWrapper14getDescriptionB5cxx11Ev
libvamp-hostsdk.so.3:_ZNK9_VampHost4Vamp7HostExt13PluginWrapper14getInputDomainEv
libvamp-hostsdk.so.3:_ZNK9_VampHost4Vamp7HostExt13PluginWrapper16getPluginVersionEv
libvamp-hostsdk.so.3:_ZNK9_VampHost4Vamp7HostExt13PluginWrapper17getCurrentProgramB5cxx11Ev
libvamp-hostsdk.so.3:_ZNK9_VampHost4Vamp7HostExt13PluginWrapper17getVampApiVersionEv
libvamp-hostsdk.so.3:_ZNK9_VampHost4Vamp7HostExt13PluginWrapper18getMaxChannelCountEv
libvamp-hostsdk.so.3:_ZNK9_VampHost4Vamp7HostExt13PluginWrapper18getMinChannelCountEv
libvamp-hostsdk.so.3:_ZNK9_VampHost4Vamp7HostExt13PluginWrapper20getOutputDescriptorsEv
libvamp-hostsdk.so.3:_ZNK9_VampHost4Vamp7HostExt13PluginWrapper20getPreferredStepSizeEv
libvamp-hostsdk.so.3:_ZNK9_VampHost4Vamp7HostExt13PluginWrapper21getPreferredBlockSizeEv
libvamp-hostsdk.so.3:_ZNK9_VampHost4Vamp7HostExt13PluginWrapper23getParameterDescriptorsEv
libvamp-hostsdk.so.3:_ZNK9_VampHost4Vamp7HostExt13PluginWrapper7getNameB5cxx11Ev
libvamp-hostsdk.so.3:_ZNK9_VampHost4Vamp7HostExt13PluginWrapper8getMakerB5cxx11Ev
libvamp-hostsdk.so.3:_ZNK9_VampHost4Vamp7HostExt22PluginBufferingAdapter20getOutputDescriptorsEv
libvamp-hostsdk.so.3:_ZNK9_VampHost4Vamp7HostExt22PluginBufferingAdapter20getPreferredStepSizeEv
libvamp-hostsdk.so.3:_ZNK9_VampHost4Vamp7HostExt22PluginBufferingAdapter21getPreferredBlockSizeEv
libvamp-hostsdk.so.3:_ZNK9_VampHost4Vamp7HostExt22PluginBufferingAdapter26getPluginPreferredStepSizeEv
libvamp-hostsdk.so.3:_ZNK9_VampHost4Vamp7HostExt22PluginBufferingAdapter27getPluginPreferredBlockSizeEv
libvamp-hostsdk.so.3:_ZNK9_VampHost4Vamp7HostExt22PluginBufferingAdapter4Impl20getOutputDescriptorsEv
libvamp-hostsdk.so.3:_ZNK9_VampHost4Vamp7HostExt24PluginInputDomainAdapter13getWindowTypeEv
libvamp-hostsdk.so.3:_ZNK9_VampHost4Vamp7HostExt24PluginInputDomainAdapter14getInputDomainEv
libvamp-hostsdk.so.3:_ZNK9_VampHost4Vamp7HostExt24PluginInputDomainAdapter20getPreferredStepSizeEv
libvamp-hostsdk.so.3:_ZNK9_VampHost4Vamp7HostExt24PluginInputDomainAdapter21getPreferredBlockSizeEv
libvamp-hostsdk.so.3:_ZNK9_VampHost4Vamp7HostExt24PluginInputDomainAdapter22getTimestampAdjustmentEv
libvamp-hostsdk.so.3:_ZNK9_VampHost4Vamp7HostExt24PluginInputDomainAdapter25getProcessTimestampMethodEv
libvamp-hostsdk.so.3:_ZNK9_VampHost4Vamp7HostExt24PluginInputDomainAdapter4Impl11convertTypeENS2_10WindowTypeE
libvamp-hostsdk.so.3:_ZNK9_VampHost4Vamp7HostExt24PluginInputDomainAdapter4Impl13getWindowTypeEv
libvamp-hostsdk.so.3:_ZNK9_VampHost4Vamp7HostExt24PluginInputDomainAdapter4Impl20getPreferredStepSizeEv
libvamp-hostsdk.so.3:_ZNK9_VampHost4Vamp7HostExt24PluginInputDomainAdapter4Impl21getPreferredBlockSizeEv
libvamp-hostsdk.so.3:_ZNK9_VampHost4Vamp7HostExt24PluginInputDomainAdapter4Impl22getTimestampAdjustmentEv
libvamp-hostsdk.so.3:_ZNK9_VampHost4Vamp7HostExt24PluginInputDomainAdapter4Impl23makeBlockSizeAcceptableEm
libvamp-hostsdk.so.3:_ZNK9_VampHost4Vamp7HostExt24PluginInputDomainAdapter4Impl25getProcessTimestampMethodEv
libvamp-hostsdk.so.3:_ZNK9_VampHost4Vamp8RealTime6toTextB5cxx11Eb
libvamp-hostsdk.so.3:_ZNK9_VampHost4Vamp8RealTime8toStringB5cxx11Ev
libvamp-hostsdk.so.3:_ZNK9_VampHost4Vamp8RealTimedvERKS1_
libvamp-hostsdk.so.3:_ZNK9_VampHost4Vamp8RealTimedvEi
libvamp-hostsdk.so.3:_ZNKSt10bad_typeid4whatEv
libvamp-hostsdk.so.3:_ZNKSt10error_code23default_error_conditionEv
libvamp-hostsdk.so.3:_ZNKSt11__timepunctIcE6_M_putEPcmPKcPK2tm
libvamp-hostsdk.so.3:_ZNKSt11__timepunctIwE6_M_putEPwmPKwPK2tm
libvamp-hostsdk.so.3:_ZNKSt11logic_error4whatEv
libvamp-hostsdk.so.3:_ZNKSt12__basic_fileIcE7is_openEv
libvamp-hostsdk.so.3:_ZNKSt13bad_exception4whatEv
libvamp-hostsdk.so.3:_ZNKSt13random_device13_M_getentropyEv
libvamp-hostsdk.so.3:_ZNKSt13runtime_error4whatEv
libvamp-hostsdk.so.3:_ZNKSt19__codecvt_utf8_baseIDiE10do_unshiftER11__mbstate_tPcS3_RS3_
libvamp-hostsdk.so.3:_ZNKSt19__codecvt_utf8_baseIDiE11do_encodingEv
libvamp-hostsdk.so.3:_ZNKSt19__codecvt_utf8_baseIDiE13do_max_lengthEv
libvamp-hostsdk.so.3:_ZNKSt19__codecvt_utf8_baseIDiE16do_always_noconvEv
libvamp-hostsdk.so.3:_ZNKSt19__codecvt_utf8_baseIDiE5do_inER11__mbstate_tPKcS4_RS4_PDiS6_RS6_
libvamp-hostsdk.so.3:_ZNKSt19__codecvt_utf8_baseIDiE6do_outER11__mbstate_tPKDiS4_RS4_PcS6_RS6_
libvamp-hostsdk.so.3:_ZNKSt19__codecvt_utf8_baseIDiE9do_lengthER11__mbstate_tPKcS4_m
libvamp-hostsdk.so.3:_ZNKSt19__codecvt_utf8_baseIDsE10do_unshiftER11__mbstate_tPcS3_RS3_
libvamp-hostsdk.so.3:_ZNKSt19__codecvt_utf8_baseIDsE11do_encodingEv
libvamp-hostsdk.so.3:_ZNKSt19__codecvt_utf8_baseIDsE13do_max_lengthEv
libvamp-hostsdk.so.3:_ZNKSt19__codecvt_utf8_baseIDsE16do_always_noconvEv
libvamp-hostsdk.so.3:_ZNKSt19__codecvt_utf8_baseIDsE5do_inER11__mbstate_tPKcS4_RS4_PDsS6_RS6_
libvamp-hostsdk.so.3:_ZNKSt19__codecvt_utf8_baseIDsE6do_outER11__mbstate_tPKDsS4_RS4_PcS6_RS6_
libvamp-hostsdk.so.3:_ZNKSt19__codecvt_utf8_baseIDsE9do_lengthER11__mbstate_tPKcS4_m
libvamp-hostsdk.so.3:_ZNKSt19__codecvt_utf8_baseIwE10do_unshiftER11__mbstate_tPcS3_RS3_
libvamp-hostsdk.so.3:_ZNKSt19__codecvt_utf8_baseIwE11do_encodingEv
libvamp-hostsdk.so.3:_ZNKSt19__codecvt_utf8_baseIwE13do_max_lengthEv
libvamp-hostsdk.so.3:_ZNKSt19__codecvt_utf8_baseIwE16do_always_noconvEv
libvamp-hostsdk.so.3:_ZNKSt19__codecvt_utf8_baseIwE5do_inER11__mbstate_tPKcS4_RS4_PwS6_RS6_
libvamp-hostsdk.so.3:_ZNKSt19__codecvt_utf8_baseIwE6do_outER11__mbstate_tPKwS4_RS4_PcS6_RS6_
libvamp-hostsdk.so.3:_ZNKSt19__codecvt_utf8_baseIwE9do_lengthER11__mbstate_tPKcS4_m
libvamp-hostsdk.so.3:_ZNKSt19__iosfail_type_info11__do_upcastEPKN10__cxxabiv117__class_type_infoEPPv
libvamp-hostsdk.so.3:_ZNKSt20__codecvt_utf16_baseIDiE10do_unshiftER11__mbstate_tPcS3_RS3_
libvamp-hostsdk.so.3:_ZNKSt20__codecvt_utf16_baseIDiE11do_encodingEv
libvamp-hostsdk.so.3:_ZNKSt20__codecvt_utf16_baseIDiE13do_max_lengthEv
libvamp-hostsdk.so.3:_ZNKSt20__codecvt_utf16_baseIDiE16do_always_noconvEv
libvamp-hostsdk.so.3:_ZNKSt20__codecvt_utf16_baseIDiE5do_inER11__mbstate_tPKcS4_RS4_PDiS6_RS6_
libvamp-hostsdk.so.3:_ZNKSt20__codecvt_utf16_baseIDiE6do_outER11__mbstate_tPKDiS4_RS4_PcS6_RS6_
libvamp-hostsdk.so.3:_ZNKSt20__codecvt_utf16_baseIDiE9do_lengthER11__mbstate_tPKcS4_m
libvamp-hostsdk.so.3:_ZNKSt20__codecvt_utf16_baseIDsE10do_unshiftER11__mbstate_tPcS3_RS3_
libvamp-hostsdk.so.3:_ZNKSt20__codecvt_utf16_baseIDsE11do_encodingEv
libvamp-hostsdk.so.3:_ZNKSt20__codecvt_utf16_baseIDsE13do_max_lengthEv
libvamp-hostsdk.so.3:_ZNKSt20__codecvt_utf16_baseIDsE16do_always_noconvEv
libvamp-hostsdk.so.3:_ZNKSt20__codecvt_utf16_baseIDsE5do_inER11__mbstate_tPKcS4_RS4_PDsS6_RS6_
libvamp-hostsdk.so.3:_ZNKSt20__codecvt_utf16_baseIDsE6do_outER11__mbstate_tPKDsS4_RS4_PcS6_RS6_
libvamp-hostsdk.so.3:_ZNKSt20__codecvt_utf16_baseIDsE9do_lengthER11__mbstate_tPKcS4_m
libvamp-hostsdk.so.3:_ZNKSt20__codecvt_utf16_baseIwE10do_unshiftER11__mbstate_tPcS3_RS3_
libvamp-hostsdk.so.3:_ZNKSt20__codecvt_utf16_baseIwE11do_encodingEv
libvamp-hostsdk.so.3:_ZNKSt20__codecvt_utf16_baseIwE13do_max_lengthEv
libvamp-hostsdk.so.3:_ZNKSt20__codecvt_utf16_baseIwE16do_always_noconvEv
libvamp-hostsdk.so.3:_ZNKSt20__codecvt_utf16_baseIwE5do_inER11__mbstate_tPKcS4_RS4_PwS6_RS6_
libvamp-hostsdk.so.3:_ZNKSt20__codecvt_utf16_baseIwE6do_outER11__mbstate_tPKwS4_RS4_PcS6_RS6_
libvamp-hostsdk.so.3:_ZNKSt20__codecvt_utf16_baseIwE9do_lengthER11__mbstate_tPKcS4_m
libvamp-hostsdk.so.3:_ZNKSt20bad_array_new_length4whatEv
libvamp-hostsdk.so.3:_ZNKSt25__codecvt_utf8_utf16_baseIDiE10do_unshiftER11__mbstate_tPcS3_RS3_
libvamp-hostsdk.so.3:_ZNKSt25__codecvt_utf8_utf16_baseIDiE11do_encodingEv
libvamp-hostsdk.so.3:_ZNKSt25__codecvt_utf8_utf16_baseIDiE13do_max_lengthEv
libvamp-hostsdk.so.3:_ZNKSt25__codecvt_utf8_utf16_baseIDiE16do_always_noconvEv
libvamp-hostsdk.so.3:_ZNKSt25__codecvt_utf8_utf16_baseIDiE5do_inER11__mbstate_tPKcS4_RS4_PDiS6_RS6_
libvamp-hostsdk.so.3:_ZNKSt25__codecvt_utf8_utf16_baseIDiE6do_outER11__mbstate_tPKDiS4_RS4_PcS6_RS6_
libvamp-hostsdk.so.3:_ZNKSt25__codecvt_utf8_utf16_baseIDiE9do_lengthER11__mbstate_tPKcS4_m
libvamp-hostsdk.so.3:_ZNKSt25__codecvt_utf8_utf16_baseIDsE10do_unshiftER11__mbstate_tPcS3_RS3_
libvamp-hostsdk.so.3:_ZNKSt25__codecvt_utf8_utf16_baseIDsE11do_encodingEv
libvamp-hostsdk.so.3:_ZNKSt25__codecvt_utf8_utf16_baseIDsE13do_max_lengthEv
libvamp-hostsdk.so.3:_ZNKSt25__codecvt_utf8_utf16_baseIDsE16do_always_noconvEv
libvamp-hostsdk.so.3:_ZNKSt25__codecvt_utf8_utf16_baseIDsE5do_inER11__mbstate_tPKcS4_RS4_PDsS6_RS6_
libvamp-hostsdk.so.3:_ZNKSt25__codecvt_utf8_utf16_baseIDsE6do_outER11__mbstate_tPKDsS4_RS4_PcS6_RS6_
libvamp-hostsdk.so.3:_ZNKSt25__codecvt_utf8_utf16_baseIDsE9do_lengthER11__mbstate_tPKcS4_m
libvamp-hostsdk.so.3:_ZNKSt25__codecvt_utf8_utf16_baseIwE10do_unshiftER11__mbstate_tPcS3_RS3_
libvamp-hostsdk.so.3:_ZNKSt25__codecvt_utf8_utf16_baseIwE11do_encodingEv
libvamp-hostsdk.so.3:_ZNKSt25__codecvt_utf8_utf16_baseIwE13do_max_lengthEv
libvamp-hostsdk.so.3:_ZNKSt25__codecvt_utf8_utf16_baseIwE16do_always_noconvEv
libvamp-hostsdk.so.3:_ZNKSt25__codecvt_utf8_utf16_baseIwE5do_inER11__mbstate_tPKcS4_RS4_PwS6_RS6_
libvamp-hostsdk.so.3:_ZNKSt25__codecvt_utf8_utf16_baseIwE6do_outER11__mbstate_tPKwS4_RS4_PcS6_RS6_
libvamp-hostsdk.so.3:_ZNKSt25__codecvt_utf8_utf16_baseIwE9do_lengthER11__mbstate_tPKcS4_m
libvamp-hostsdk.so.3:_ZNKSt3_V214error_category10_M_messageB5cxx11Ei
libvamp-hostsdk.so.3:_ZNKSt3_V214error_category10_M_messageEi
libvamp-hostsdk.so.3:_ZNKSt3_V214error_category10equivalentERKSt10error_codei
libvamp-hostsdk.so.3:_ZNKSt3_V214error_category10equivalentEiRKSt15error_condition
libvamp-hostsdk.so.3:_ZNKSt3_V214error_category23default_error_conditionEi
libvamp-hostsdk.so.3:_ZNKSt5ctypeIcE10do_tolowerEPcPKc
libvamp-hostsdk.so.3:_ZNKSt5ctypeIcE10do_tolowerEc
libvamp-hostsdk.so.3:_ZNKSt5ctypeIcE10do_toupperEPcPKc
libvamp-hostsdk.so.3:_ZNKSt5ctypeIcE10do_toupperEc
libvamp-hostsdk.so.3:_ZNKSt5ctypeIcE13_M_widen_initEv
libvamp-hostsdk.so.3:_ZNKSt5ctypeIcE14_M_narrow_initEv
libvamp-hostsdk.so.3:_ZNKSt5ctypeIwE10do_scan_isEtPKwS2_
libvamp-hostsdk.so.3:_ZNKSt5ctypeIwE10do_tolowerEPwPKw
libvamp-hostsdk.so.3:_ZNKSt5ctypeIwE10do_tolowerEw
libvamp-hostsdk.so.3:_ZNKSt5ctypeIwE10do_toupperEPwPKw
libvamp-hostsdk.so.3:_ZNKSt5ctypeIwE10do_toupperEw
libvamp-hostsdk.so.3:_ZNKSt5ctypeIwE11do_scan_notEtPKwS2_
libvamp-hostsdk.so.3:_ZNKSt5ctypeIwE19_M_convert_to_wmaskEt
libvamp-hostsdk.so.3:_ZNKSt5ctypeIwE5do_isEPKwS2_Pt
libvamp-hostsdk.so.3:_ZNKSt5ctypeIwE5do_isEtw
libvamp-hostsdk.so.3:_ZNKSt5ctypeIwE8do_widenEPKcS2_Pw
libvamp-hostsdk.so.3:_ZNKSt5ctypeIwE8do_widenEc
libvamp-hostsdk.so.3:_ZNKSt5ctypeIwE9do_narrowEPKwS2_cPc
libvamp-hostsdk.so.3:_ZNKSt5ctypeIwE9do_narrowEwc
libvamp-hostsdk.so.3:_ZNKSt6locale2id5_M_idEv
libvamp-hostsdk.so.3:_ZNKSt6locale4nameB5cxx11Ev
libvamp-hostsdk.so.3:_ZNKSt6locale4nameEv
libvamp-hostsdk.so.3:_ZNKSt6locale5facet11_M_cow_shimEPKNS_2idE
libvamp-hostsdk.so.3:_ZNKSt6locale5facet11_M_sso_shimEPKNS_2idE
libvamp-hostsdk.so.3:_ZNKSt6localeeqERKS_
libvamp-hostsdk.so.3:_ZNKSt7__cxx117collateIcE10_M_compareEPKcS3_
libvamp-hostsdk.so.3:_ZNKSt7__cxx117collateIcE12_M_transformEPcPKcm
libvamp-hostsdk.so.3:_ZNKSt7__cxx117collateIwE10_M_compareEPKwS3_
libvamp-hostsdk.so.3:_ZNKSt7__cxx117collateIwE12_M_transformEPwPKwm
libvamp-hostsdk.so.3:_ZNKSt7__cxx118messagesIcE6do_getEiiiRKNS_12basic_stringIcSt11char_traitsIcESaIcEEE
libvamp-hostsdk.so.3:_ZNKSt7__cxx118messagesIcE7do_openERKNS_12basic_stringIcSt11char_traitsIcESaIcEEERKSt6locale
libvamp-hostsdk.so.3:_ZNKSt7__cxx118messagesIcE8do_closeEi
libvamp-hostsdk.so.3:_ZNKSt7__cxx118messagesIwE6do_getEiiiRKNS_12basic_stringIwSt11char_traitsIwESaIwEEE
libvamp-hostsdk.so.3:_ZNKSt7__cxx118messagesIwE7do_openERKNS_12basic_stringIcSt11char_traitsIcESaIcEEERKSt6locale
libvamp-hostsdk.so.3:_ZNKSt7__cxx118messagesIwE8do_closeEi
libvamp-hostsdk.so.3:_ZNKSt7codecvtIDiDu11__mbstate_tE10do_unshiftERS0_PDuS3_RS3_
libvamp-hostsdk.so.3:_ZNKSt7codecvtIDiDu11__mbstate_tE11do_encodingEv
libvamp-hostsdk.so.3:_ZNKSt7codecvtIDiDu11__mbstate_tE13do_max_lengthEv
libvamp-hostsdk.so.3:_ZNKSt7codecvtIDiDu11__mbstate_tE16do_always_noconvEv
libvamp-hostsdk.so.3:_ZNKSt7codecvtIDiDu11__mbstate_tE5do_inERS0_PKDuS4_RS4_PDiS6_RS6_
libvamp-hostsdk.so.3:_ZNKSt7codecvtIDiDu11__mbstate_tE6do_outERS0_PKDiS4_RS4_PDuS6_RS6_
libvamp-hostsdk.so.3:_ZNKSt7codecvtIDiDu11__mbstate_tE9do_lengthERS0_PKDuS4_m
libvamp-hostsdk.so.3:_ZNKSt7codecvtIDic11__mbstate_tE10do_unshiftERS0_PcS3_RS3_
libvamp-hostsdk.so.3:_ZNKSt7codecvtIDic11__mbstate_tE11do_encodingEv
libvamp-hostsdk.so.3:_ZNKSt7codecvtIDic11__mbstate_tE13do_max_lengthEv
libvamp-hostsdk.so.3:_ZNKSt7codecvtIDic11__mbstate_tE16do_always_noconvEv
libvamp-hostsdk.so.3:_ZNKSt7codecvtIDic11__mbstate_tE5do_inERS0_PKcS4_RS4_PDiS6_RS6_
libvamp-hostsdk.so.3:_ZNKSt7codecvtIDic11__mbstate_tE6do_outERS0_PKDiS4_RS4_PcS6_RS6_
libvamp-hostsdk.so.3:_ZNKSt7codecvtIDic11__mbstate_tE9do_lengthERS0_PKcS4_m
libvamp-hostsdk.so.3:_ZNKSt7codecvtIDsDu11__mbstate_tE10do_unshiftERS0_PDuS3_RS3_
libvamp-hostsdk.so.3:_ZNKSt7codecvtIDsDu11__mbstate_tE11do_encodingEv
libvamp-hostsdk.so.3:_ZNKSt7codecvtIDsDu11__mbstate_tE13do_max_lengthEv
libvamp-hostsdk.so.3:_ZNKSt7codecvtIDsDu11__mbstate_tE16do_always_noconvEv
libvamp-hostsdk.so.3:_ZNKSt7codecvtIDsDu11__mbstate_tE5do_inERS0_PKDuS4_RS4_PDsS6_RS6_
libvamp-hostsdk.so.3:_ZNKSt7codecvtIDsDu11__mbstate_tE6do_outERS0_PKDsS4_RS4_PDuS6_RS6_
libvamp-hostsdk.so.3:_ZNKSt7codecvtIDsDu11__mbstate_tE9do_lengthERS0_PKDuS4_m
libvamp-hostsdk.so.3:_ZNKSt7codecvtIDsc11__mbstate_tE10do_unshiftERS0_PcS3_RS3_
libvamp-hostsdk.so.3:_ZNKSt7codecvtIDsc11__mbstate_tE11do_encodingEv
libvamp-hostsdk.so.3:_ZNKSt7codecvtIDsc11__mbstate_tE13do_max_lengthEv
libvamp-hostsdk.so.3:_ZNKSt7codecvtIDsc11__mbstate_tE16do_always_noconvEv
libvamp-hostsdk.so.3:_ZNKSt7codecvtIDsc11__mbstate_tE5do_inERS0_PKcS4_RS4_PDsS6_RS6_
libvamp-hostsdk.so.3:_ZNKSt7codecvtIDsc11__mbstate_tE6do_outERS0_PKDsS4_RS4_PcS6_RS6_
libvamp-hostsdk.so.3:_ZNKSt7codecvtIDsc11__mbstate_tE9do_lengthERS0_PKcS4_m
libvamp-hostsdk.so.3:_ZNKSt7codecvtIcc11__mbstate_tE10do_unshiftERS0_PcS3_RS3_
libvamp-hostsdk.so.3:_ZNKSt7codecvtIcc11__mbstate_tE11do_encodingEv
libvamp-hostsdk.so.3:_ZNKSt7codecvtIcc11__mbstate_tE13do_max_lengthEv
libvamp-hostsdk.so.3:_ZNKSt7codecvtIcc11__mbstate_tE16do_always_noconvEv
libvamp-hostsdk.so.3:_ZNKSt7codecvtIcc11__mbstate_tE5do_inERS0_PKcS4_RS4_PcS6_RS6_
libvamp-hostsdk.so.3:_ZNKSt7codecvtIcc11__mbstate_tE6do_outERS0_PKcS4_RS4_PcS6_RS6_
libvamp-hostsdk.so.3:_ZNKSt7codecvtIcc11__mbstate_tE9do_lengthERS0_PKcS4_m
libvamp-hostsdk.so.3:_ZNKSt7codecvtIwc11__mbstate_tE10do_unshiftERS0_PcS3_RS3_
libvamp-hostsdk.so.3:_ZNKSt7codecvtIwc11__mbstate_tE11do_encodingEv
libvamp-hostsdk.so.3:_ZNKSt7codecvtIwc11__mbstate_tE13do_max_lengthEv
libvamp-hostsdk.so.3:_ZNKSt7codecvtIwc11__mbstate_tE16do_always_noconvEv
libvamp-hostsdk.so.3:_ZNKSt7codecvtIwc11__mbstate_tE5do_inERS0_PKcS4_RS4_PwS6_RS6_
libvamp-hostsdk.so.3:_ZNKSt7codecvtIwc11__mbstate_tE6do_outERS0_PKwS4_RS4_PcS6_RS6_
libvamp-hostsdk.so.3:_ZNKSt7codecvtIwc11__mbstate_tE9do_lengthERS0_PKcS4_m
libvamp-hostsdk.so.3:_ZNKSt7collateIcE10_M_compareEPKcS2_
libvamp-hostsdk.so.3:_ZNKSt7collateIcE12_M_transformEPcPKcm
libvamp-hostsdk.so.3:_ZNKSt7collateIwE10_M_compareEPKwS2_
libvamp-hostsdk.so.3:_ZNKSt7collateIwE12_M_transformEPwPKwm
libvamp-hostsdk.so.3:_ZNKSt8Catalogs6_M_getEi
libvamp-hostsdk.so.3:_ZNKSt8bad_cast4whatEv
libvamp-hostsdk.so.3:_ZNKSt8ios_base7failure4whatEv
libvamp-hostsdk.so.3:_ZNKSt8ios_base7failureB5cxx114whatEv
libvamp-hostsdk.so.3:_ZNKSt8messagesIcE6do_getEiiiRKSs
libvamp-hostsdk.so.3:_ZNKSt8messagesIcE7do_openERKSsRKSt6locale
libvamp-hostsdk.so.3:_ZNKSt8messagesIcE8do_closeEi
libvamp-hostsdk.so.3:_ZNKSt8messagesIwE6do_getEiiiRKSbIwSt11char_traitsIwESaIwEE
libvamp-hostsdk.so.3:_ZNKSt8messagesIwE7do_openERKSsRKSt6locale
libvamp-hostsdk.so.3:_ZNKSt8messagesIwE8do_closeEi
libvamp-hostsdk.so.3:_ZNKSt9bad_alloc4whatEv
libvamp-hostsdk.so.3:_ZNKSt9exception4whatEv
libvamp-hostsdk.so.3:_ZNKSt9type_info10__do_catchEPKS_PPvj
libvamp-hostsdk.so.3:_ZNKSt9type_info11__do_upcastEPKN10__cxxabiv117__class_type_infoEPPv
libvamp-hostsdk.so.3:_ZNKSt9type_info14__is_pointer_pEv
libvamp-hostsdk.so.3:_ZNKSt9type_info15__is_function_pEv
libvamp-hostsdk.so.3:_ZNSi6ignoreEl
libvamp-hostsdk.so.3:_ZNSi6ignoreEli
libvamp-hostsdk.so.3:_ZNSi7getlineEPclc
libvamp-hostsdk.so.3:_ZNSt10__num_base15_S_format_floatERKSt8ios_basePcc
libvamp-hostsdk.so.3:_ZNSt10bad_typeidD0Ev
libvamp-hostsdk.so.3:_ZNSt10bad_typeidD1Ev
libvamp-hostsdk.so.3:_ZNSt10bad_typeidD2Ev
libvamp-hostsdk.so.3:_ZNSt10money_base20_S_construct_patternEccc
libvamp-hostsdk.so.3:_ZNSt10moneypunctIcLb0EE24_M_initialize_moneypunctEP15__locale_structPKc
libvamp-hostsdk.so.3:_ZNSt10moneypunctIcLb0EED0Ev
libvamp-hostsdk.so.3:_ZNSt10moneypunctIcLb0EED1Ev
libvamp-hostsdk.so.3:_ZNSt10moneypunctIcLb0EED2Ev
libvamp-hostsdk.so.3:_ZNSt10moneypunctIcLb1EE24_M_initialize_moneypunctEP15__locale_structPKc
libvamp-hostsdk.so.3:_ZNSt10moneypunctIcLb1EED0Ev
libvamp-hostsdk.so.3:_ZNSt10moneypunctIcLb1EED1Ev
libvamp-hostsdk.so.3:_ZNSt10moneypunctIcLb1EED2Ev
libvamp-hostsdk.so.3:_ZNSt10moneypunctIwLb0EE24_M_initialize_moneypunctEP15__locale_structPKc
libvamp-hostsdk.so.3:_ZNSt10moneypunctIwLb0EED0Ev
libvamp-hostsdk.so.3:_ZNSt10moneypunctIwLb0EED1Ev
libvamp-hostsdk.so.3:_ZNSt10moneypunctIwLb0EED2Ev
libvamp-hostsdk.so.3:_ZNSt10moneypunctIwLb1EE24_M_initialize_moneypunctEP15__locale_structPKc
libvamp-hostsdk.so.3:_ZNSt10moneypunctIwLb1EED0Ev
libvamp-hostsdk.so.3:_ZNSt10moneypunctIwLb1EED1Ev
libvamp-hostsdk.so.3:_ZNSt10moneypunctIwLb1EED2Ev
libvamp-hostsdk.so.3:_ZNSt11__timepunctIcE23_M_initialize_timepunctEP15__locale_struct
libvamp-hostsdk.so.3:_ZNSt11__timepunctIwE23_M_initialize_timepunctEP15__locale_struct
libvamp-hostsdk.so.3:_ZNSt11logic_errorC1EOS_
libvamp-hostsdk.so.3:_ZNSt11logic_errorC1EPKc
libvamp-hostsdk.so.3:_ZNSt11logic_errorC1ERKNSt7__cxx1112basic_stringIcSt11char_traitsIcESaIcEEE
libvamp-hostsdk.so.3:_ZNSt11logic_errorC1ERKS_
libvamp-hostsdk.so.3:_ZNSt11logic_errorC1ERKSs
libvamp-hostsdk.so.3:_ZNSt11logic_errorC2EOS_
libvamp-hostsdk.so.3:_ZNSt11logic_errorC2EPKc
libvamp-hostsdk.so.3:_ZNSt11logic_errorC2ERKNSt7__cxx1112basic_stringIcSt11char_traitsIcESaIcEEE
libvamp-hostsdk.so.3:_ZNSt11logic_errorC2ERKS_
libvamp-hostsdk.so.3:_ZNSt11logic_errorC2ERKSs
libvamp-hostsdk.so.3:_ZNSt11logic_errorD0Ev
libvamp-hostsdk.so.3:_ZNSt11logic_errorD1Ev
libvamp-hostsdk.so.3:_ZNSt11logic_errorD2Ev
libvamp-hostsdk.so.3:_ZNSt11logic_erroraSEOS_
libvamp-hostsdk.so.3:_ZNSt11logic_erroraSERKS_
libvamp-hostsdk.so.3:_ZNSt11range_errorC1EPKc
libvamp-hostsdk.so.3:_ZNSt11range_errorC1ERKNSt7__cxx1112basic_stringIcSt11char_traitsIcESaIcEEE
libvamp-hostsdk.so.3:_ZNSt11range_errorC1ERKSs
libvamp-hostsdk.so.3:_ZNSt11range_errorC2EPKc
libvamp-hostsdk.so.3:_ZNSt11range_errorC2ERKNSt7__cxx1112basic_stringIcSt11char_traitsIcESaIcEEE
libvamp-hostsdk.so.3:_ZNSt11range_errorC2ERKSs
libvamp-hostsdk.so.3:_ZNSt11range_errorD0Ev
libvamp-hostsdk.so.3:_ZNSt11range_errorD1Ev
libvamp-hostsdk.so.3:_ZNSt11range_errorD2Ev
libvamp-hostsdk.so.3:_ZNSt12__basic_fileIcE2fdEv
libvamp-hostsdk.so.3:_ZNSt12__basic_fileIcE4fileEv
libvamp-hostsdk.so.3:_ZNSt12__basic_fileIcE4openEPKcSt13_Ios_Openmodei
libvamp-hostsdk.so.3:_ZNSt12__basic_fileIcE4syncEv
libvamp-hostsdk.so.3:_ZNSt12__basic_fileIcE5closeEv
libvamp-hostsdk.so.3:_ZNSt12__basic_fileIcE6xsgetnEPcl
libvamp-hostsdk.so.3:_ZNSt12__basic_fileIcE6xsputnEPKcl
libvamp-hostsdk.so.3:_ZNSt12__basic_fileIcE7seekoffElSt12_Ios_Seekdir
libvamp-hostsdk.so.3:_ZNSt12__basic_fileIcE8sys_openEP8_IO_FILESt13_Ios_Openmode
libvamp-hostsdk.so.3:_ZNSt12__basic_fileIcE8sys_openEiSt13_Ios_Openmode
libvamp-hostsdk.so.3:_ZNSt12__basic_fileIcE8xsputn_2EPKclS2_l
libvamp-hostsdk.so.3:_ZNSt12__basic_fileIcE9showmanycEv
libvamp-hostsdk.so.3:_ZNSt12__basic_fileIcEC1EP15pthread_mutex_t
libvamp-hostsdk.so.3:_ZNSt12__basic_fileIcEC2EP15pthread_mutex_t
libvamp-hostsdk.so.3:_ZNSt12__basic_fileIcED1Ev
libvamp-hostsdk.so.3:_ZNSt12__basic_fileIcED2Ev
libvamp-hostsdk.so.3:_ZNSt12__cow_stringC1EOS_
libvamp-hostsdk.so.3:_ZNSt12__cow_stringC1EPKcm
libvamp-hostsdk.so.3:_ZNSt12__cow_stringC1ERKNSt7__cxx1112basic_stringIcSt11char_traitsIcESaIcEEE
libvamp-hostsdk.so.3:_ZNSt12__cow_stringC1ERKS_
libvamp-hostsdk.so.3:_ZNSt12__cow_stringC1ERKSs
libvamp-hostsdk.so.3:_ZNSt12__cow_stringC1Ev
libvamp-hostsdk.so.3:_ZNSt12__cow_stringC2EOS_
libvamp-hostsdk.so.3:_ZNSt12__cow_stringC2EPKcm
libvamp-hostsdk.so.3:_ZNSt12__cow_stringC2ERKNSt7__cxx1112basic_stringIcSt11char_traitsIcESaIcEEE
libvamp-hostsdk.so.3:_ZNSt12__cow_stringC2ERKS_
libvamp-hostsdk.so.3:_ZNSt12__cow_stringC2ERKSs
libvamp-hostsdk.so.3:_ZNSt12__cow_stringC2Ev
libvamp-hostsdk.so.3:_ZNSt12__cow_stringD1Ev
libvamp-hostsdk.so.3:_ZNSt12__cow_stringD2Ev
libvamp-hostsdk.so.3:_ZNSt12__cow_stringaSEOS_
libvamp-hostsdk.so.3:_ZNSt12__cow_stringaSERKS_
libvamp-hostsdk.so.3:_ZNSt12__sso_stringC1EOS_
libvamp-hostsdk.so.3:_ZNSt12__sso_stringC1EPKcm
libvamp-hostsdk.so.3:_ZNSt12__sso_stringC1ERKNSt7__cxx1112basic_stringIcSt11char_traitsIcESaIcEEE
libvamp-hostsdk.so.3:_ZNSt12__sso_stringC1ERKS_
libvamp-hostsdk.so.3:_ZNSt12__sso_stringC1ERKSs
libvamp-hostsdk.so.3:_ZNSt12__sso_stringC1Ev
libvamp-hostsdk.so.3:_ZNSt12__sso_stringC2EOS_
libvamp-hostsdk.so.3:_ZNSt12__sso_stringC2EPKcm
libvamp-hostsdk.so.3:_ZNSt12__sso_stringC2ERKNSt7__cxx1112basic_stringIcSt11char_traitsIcESaIcEEE
libvamp-hostsdk.so.3:_ZNSt12__sso_stringC2ERKS_
libvamp-hostsdk.so.3:_ZNSt12__sso_stringC2ERKSs
libvamp-hostsdk.so.3:_ZNSt12__sso_stringC2Ev
libvamp-hostsdk.so.3:_ZNSt12__sso_stringD1Ev
libvamp-hostsdk.so.3:_ZNSt12__sso_stringD2Ev
libvamp-hostsdk.so.3:_ZNSt12__sso_stringaSEOS_
libvamp-hostsdk.so.3:_ZNSt12__sso_stringaSERKS_
libvamp-hostsdk.so.3:_ZNSt12ctype_bynameIcEC1EPKcm
libvamp-hostsdk.so.3:_ZNSt12ctype_bynameIcEC1ERKNSt7__cxx1112basic_stringIcSt11char_traitsIcESaIcEEEm
libvamp-hostsdk.so.3:_ZNSt12ctype_bynameIcEC1ERKSsm
libvamp-hostsdk.so.3:_ZNSt12ctype_bynameIcEC2EPKcm
libvamp-hostsdk.so.3:_ZNSt12ctype_bynameIcEC2ERKNSt7__cxx1112basic_stringIcSt11char_traitsIcESaIcEEEm
libvamp-hostsdk.so.3:_ZNSt12ctype_bynameIcEC2ERKSsm
libvamp-hostsdk.so.3:_ZNSt12ctype_bynameIcED0Ev
libvamp-hostsdk.so.3:_ZNSt12ctype_bynameIcED1Ev
libvamp-hostsdk.so.3:_ZNSt12ctype_bynameIcED2Ev
libvamp-hostsdk.so.3:_ZNSt12ctype_bynameIwEC1EPKcm
libvamp-hostsdk.so.3:_ZNSt12ctype_bynameIwEC1ERKNSt7__cxx1112basic_stringIcSt11char_traitsIcESaIcEEEm
libvamp-hostsdk.so.3:_ZNSt12ctype_bynameIwEC1ERKSsm
libvamp-hostsdk.so.3:_ZNSt12ctype_bynameIwEC2EPKcm
libvamp-hostsdk.so.3:_ZNSt12ctype_bynameIwEC2ERKNSt7__cxx1112basic_stringIcSt11char_traitsIcESaIcEEEm
libvamp-hostsdk.so.3:_ZNSt12ctype_bynameIwEC2ERKSsm
libvamp-hostsdk.so.3:_ZNSt12ctype_bynameIwED0Ev
libvamp-hostsdk.so.3:_ZNSt12ctype_bynameIwED1Ev
libvamp-hostsdk.so.3:_ZNSt12ctype_bynameIwED2Ev
libvamp-hostsdk.so.3:_ZNSt12domain_errorC1EPKc
libvamp-hostsdk.so.3:_ZNSt12domain_errorC1ERKNSt7__cxx1112basic_stringIcSt11char_traitsIcESaIcEEE
libvamp-hostsdk.so.3:_ZNSt12domain_errorC1ERKSs
libvamp-hostsdk.so.3:_ZNSt12domain_errorC2EPKc
libvamp-hostsdk.so.3:_ZNSt12domain_errorC2ERKNSt7__cxx1112basic_stringIcSt11char_traitsIcESaIcEEE
libvamp-hostsdk.so.3:_ZNSt12domain_errorC2ERKSs
libvamp-hostsdk.so.3:_ZNSt12domain_errorD0Ev
libvamp-hostsdk.so.3:_ZNSt12domain_errorD1Ev
libvamp-hostsdk.so.3:_ZNSt12domain_errorD2Ev
libvamp-hostsdk.so.3:_ZNSt12length_errorC1EPKc
libvamp-hostsdk.so.3:_ZNSt12length_errorC1ERKNSt7__cxx1112basic_stringIcSt11char_traitsIcESaIcEEE
libvamp-hostsdk.so.3:_ZNSt12length_errorC1ERKSs
libvamp-hostsdk.so.3:_ZNSt12length_errorC2EPKc
libvamp-hostsdk.so.3:_ZNSt12length_errorC2ERKNSt7__cxx1112basic_stringIcSt11char_traitsIcESaIcEEE
libvamp-hostsdk.so.3:_ZNSt12length_errorC2ERKSs
libvamp-hostsdk.so.3:_ZNSt12length_errorD0Ev
libvamp-hostsdk.so.3:_ZNSt12length_errorD1Ev
libvamp-hostsdk.so.3:_ZNSt12length_errorD2Ev
libvamp-hostsdk.so.3:_ZNSt12out_of_rangeC1EPKc
libvamp-hostsdk.so.3:_ZNSt12out_of_rangeC1ERKNSt7__cxx1112basic_stringIcSt11char_traitsIcESaIcEEE
libvamp-hostsdk.so.3:_ZNSt12out_of_rangeC1ERKSs
libvamp-hostsdk.so.3:_ZNSt12out_of_rangeC2EPKc
libvamp-hostsdk.so.3:_ZNSt12out_of_rangeC2ERKNSt7__cxx1112basic_stringIcSt11char_traitsIcESaIcEEE
libvamp-hostsdk.so.3:_ZNSt12out_of_rangeC2ERKSs
libvamp-hostsdk.so.3:_ZNSt12out_of_rangeD0Ev
libvamp-hostsdk.so.3:_ZNSt12out_of_rangeD1Ev
libvamp-hostsdk.so.3:_ZNSt12out_of_rangeD2Ev
libvamp-hostsdk.so.3:_ZNSt12system_errorD0Ev
libvamp-hostsdk.so.3:_ZNSt12system_errorD1Ev
libvamp-hostsdk.so.3:_ZNSt12system_errorD2Ev
libvamp-hostsdk.so.3:_ZNSt13bad_exceptionD0Ev
libvamp-hostsdk.so.3:_ZNSt13bad_exceptionD1Ev
libvamp-hostsdk.so.3:_ZNSt13bad_exceptionD2Ev
libvamp-hostsdk.so.3:_ZNSt13basic_istreamIwSt11char_traitsIwEE6ignoreEl
libvamp-hostsdk.so.3:_ZNSt13basic_istreamIwSt11char_traitsIwEE6ignoreElj
libvamp-hostsdk.so.3:_ZNSt13basic_istreamIwSt11char_traitsIwEE7getlineEPwlw
libvamp-hostsdk.so.3:_ZNSt13random_device14_M_init_pretr1ERKNSt7__cxx1112basic_stringIcSt11char_traitsIcESaIcEEE
libvamp-hostsdk.so.3:_ZNSt13random_device14_M_init_pretr1ERKSs
libvamp-hostsdk.so.3:_ZNSt13random_device16_M_getval_pretr1Ev
libvamp-hostsdk.so.3:_ZNSt13random_device7_M_finiEv
libvamp-hostsdk.so.3:_ZNSt13random_device7_M_initEPKcm
libvamp-hostsdk.so.3:_ZNSt13random_device7_M_initERKNSt7__cxx1112basic_stringIcSt11char_traitsIcESaIcEEE
libvamp-hostsdk.so.3:_ZNSt13random_device7_M_initERKSs
libvamp-hostsdk.so.3:_ZNSt13random_device9_M_getvalEv
libvamp-hostsdk.so.3:_ZNSt13runtime_errorC1EOS_
libvamp-hostsdk.so.3:_ZNSt13runtime_errorC1EPKc
libvamp-hostsdk.so.3:_ZNSt13runtime_errorC1ERKNSt7__cxx1112basic_stringIcSt11char_traitsIcESaIcEEE
libvamp-hostsdk.so.3:_ZNSt13runtime_errorC1ERKS_
libvamp-hostsdk.so.3:_ZNSt13runtime_errorC1ERKSs
libvamp-hostsdk.so.3:_ZNSt13runtime_errorC2EOS_
libvamp-hostsdk.so.3:_ZNSt13runtime_errorC2EPKc
libvamp-hostsdk.so.3:_ZNSt13runtime_errorC2ERKNSt7__cxx1112basic_stringIcSt11char_traitsIcESaIcEEE
libvamp-hostsdk.so.3:_ZNSt13runtime_errorC2ERKS_
libvamp-hostsdk.so.3:_ZNSt13runtime_errorC2ERKSs
libvamp-hostsdk.so.3:_ZNSt13runtime_errorD0Ev
libvamp-hostsdk.so.3:_ZNSt13runtime_errorD1Ev
libvamp-hostsdk.so.3:_ZNSt13runtime_errorD2Ev
libvamp-hostsdk.so.3:_ZNSt13runtime_erroraSEOS_
libvamp-hostsdk.so.3:_ZNSt13runtime_erroraSERKS_
libvamp-hostsdk.so.3:_ZNSt14overflow_errorC1EPKc
libvamp-hostsdk.so.3:_ZNSt14overflow_errorC1ERKNSt7__cxx1112basic_stringIcSt11char_traitsIcESaIcEEE
libvamp-hostsdk.so.3:_ZNSt14overflow_errorC1ERKSs
libvamp-hostsdk.so.3:_ZNSt14overflow_errorC2EPKc
libvamp-hostsdk.so.3:_ZNSt14overflow_errorC2ERKNSt7__cxx1112basic_stringIcSt11char_traitsIcESaIcEEE
libvamp-hostsdk.so.3:_ZNSt14overflow_errorC2ERKSs
libvamp-hostsdk.so.3:_ZNSt14overflow_errorD0Ev
libvamp-hostsdk.so.3:_ZNSt14overflow_errorD1Ev
libvamp-hostsdk.so.3:_ZNSt14overflow_errorD2Ev
libvamp-hostsdk.so.3:_ZNSt15underflow_errorC1EPKc
libvamp-hostsdk.so.3:_ZNSt15underflow_errorC1ERKNSt7__cxx1112basic_stringIcSt11char_traitsIcESaIcEEE
libvamp-hostsdk.so.3:_ZNSt15underflow_errorC1ERKSs
libvamp-hostsdk.so.3:_ZNSt15underflow_errorC2EPKc
libvamp-hostsdk.so.3:_ZNSt15underflow_errorC2ERKNSt7__cxx1112basic_stringIcSt11char_traitsIcESaIcEEE
libvamp-hostsdk.so.3:_ZNSt15underflow_errorC2ERKSs
libvamp-hostsdk.so.3:_ZNSt15underflow_errorD0Ev
libvamp-hostsdk.so.3:_ZNSt15underflow_errorD1Ev
libvamp-hostsdk.so.3:_ZNSt15underflow_errorD2Ev
libvamp-hostsdk.so.3:_ZNSt16invalid_argumentC1EPKc
libvamp-hostsdk.so.3:_ZNSt16invalid_argumentC1ERKNSt7__cxx1112basic_stringIcSt11char_traitsIcESaIcEEE
libvamp-hostsdk.so.3:_ZNSt16invalid_argumentC1ERKSs
libvamp-hostsdk.so.3:_ZNSt16invalid_argumentC2EPKc
libvamp-hostsdk.so.3:_ZNSt16invalid_argumentC2ERKNSt7__cxx1112basic_stringIcSt11char_traitsIcESaIcEEE
libvamp-hostsdk.so.3:_ZNSt16invalid_argumentC2ERKSs
libvamp-hostsdk.so.3:_ZNSt16invalid_argumentD0Ev
libvamp-hostsdk.so.3:_ZNSt16invalid_argumentD1Ev
libvamp-hostsdk.so.3:_ZNSt16invalid_argumentD2Ev
libvamp-hostsdk.so.3:_ZNSt19__codecvt_utf8_baseIDiED0Ev
libvamp-hostsdk.so.3:_ZNSt19__codecvt_utf8_baseIDiED1Ev
libvamp-hostsdk.so.3:_ZNSt19__codecvt_utf8_baseIDiED2Ev
libvamp-hostsdk.so.3:_ZNSt19__codecvt_utf8_baseIDsED0Ev
libvamp-hostsdk.so.3:_ZNSt19__codecvt_utf8_baseIDsED1Ev
libvamp-hostsdk.so.3:_ZNSt19__codecvt_utf8_baseIDsED2Ev
libvamp-hostsdk.so.3:_ZNSt19__codecvt_utf8_baseIwED0Ev
libvamp-hostsdk.so.3:_ZNSt19__codecvt_utf8_baseIwED1Ev
libvamp-hostsdk.so.3:_ZNSt19__codecvt_utf8_baseIwED2Ev
libvamp-hostsdk.so.3:_ZNSt19__iosfail_type_infoD0Ev
libvamp-hostsdk.so.3:_ZNSt19__iosfail_type_infoD1Ev
libvamp-hostsdk.so.3:_ZNSt19__iosfail_type_infoD2Ev
libvamp-hostsdk.so.3:_ZNSt20__codecvt_utf16_baseIDiED0Ev
libvamp-hostsdk.so.3:_ZNSt20__codecvt_utf16_baseIDiED1Ev
libvamp-hostsdk.so.3:_ZNSt20__codecvt_utf16_baseIDiED2Ev
libvamp-hostsdk.so.3:_ZNSt20__codecvt_utf16_baseIDsED0Ev
libvamp-hostsdk.so.3:_ZNSt20__codecvt_utf16_baseIDsED1Ev
libvamp-hostsdk.so.3:_ZNSt20__codecvt_utf16_baseIDsED2Ev
libvamp-hostsdk.so.3:_ZNSt20__codecvt_utf16_baseIwED0Ev
libvamp-hostsdk.so.3:_ZNSt20__codecvt_utf16_baseIwED1Ev
libvamp-hostsdk.so.3:_ZNSt20__codecvt_utf16_baseIwED2Ev
libvamp-hostsdk.so.3:_ZNSt20bad_array_new_lengthD0Ev
libvamp-hostsdk.so.3:_ZNSt20bad_array_new_lengthD1Ev
libvamp-hostsdk.so.3:_ZNSt20bad_array_new_lengthD2Ev
libvamp-hostsdk.so.3:_ZNSt25__codecvt_utf8_utf16_baseIDiED0Ev
libvamp-hostsdk.so.3:_ZNSt25__codecvt_utf8_utf16_baseIDiED1Ev
libvamp-hostsdk.so.3:_ZNSt25__codecvt_utf8_utf16_baseIDiED2Ev
libvamp-hostsdk.so.3:_ZNSt25__codecvt_utf8_utf16_baseIDsED0Ev
libvamp-hostsdk.so.3:_ZNSt25__codecvt_utf8_utf16_baseIDsED1Ev
libvamp-hostsdk.so.3:_ZNSt25__codecvt_utf8_utf16_baseIDsED2Ev
libvamp-hostsdk.so.3:_ZNSt25__codecvt_utf8_utf16_baseIwED0Ev
libvamp-hostsdk.so.3:_ZNSt25__codecvt_utf8_utf16_baseIwED1Ev
libvamp-hostsdk.so.3:_ZNSt25__codecvt_utf8_utf16_baseIwED2Ev
libvamp-hostsdk.so.3:_ZNSt3_V214error_categoryD0Ev
libvamp-hostsdk.so.3:_ZNSt3_V214error_categoryD1Ev
libvamp-hostsdk.so.3:_ZNSt3_V214error_categoryD2Ev
libvamp-hostsdk.so.3:_ZNSt3_V215system_categoryEv
libvamp-hostsdk.so.3:_ZNSt3_V216generic_categoryEv
libvamp-hostsdk.so.3:_ZNSt5ctypeIcE13classic_tableEv
libvamp-hostsdk.so.3:_ZNSt5ctypeIcEC1EP15__locale_structPKtbm
libvamp-hostsdk.so.3:_ZNSt5ctypeIcEC1EPKtbm
libvamp-hostsdk.so.3:_ZNSt5ctypeIcEC2EP15__locale_structPKtbm
libvamp-hostsdk.so.3:_ZNSt5ctypeIcEC2EPKtbm
libvamp-hostsdk.so.3:_ZNSt5ctypeIcED0Ev
libvamp-hostsdk.so.3:_ZNSt5ctypeIcED1Ev
libvamp-hostsdk.so.3:_ZNSt5ctypeIcED2Ev
libvamp-hostsdk.so.3:_ZNSt5ctypeIwE19_M_initialize_ctypeEv
libvamp-hostsdk.so.3:_ZNSt5ctypeIwEC1EP15__locale_structm
libvamp-hostsdk.so.3:_ZNSt5ctypeIwEC1Em
libvamp-hostsdk.so.3:_ZNSt5ctypeIwEC2EP15__locale_structm
libvamp-hostsdk.so.3:_ZNSt5ctypeIwEC2Em
libvamp-hostsdk.so.3:_ZNSt5ctypeIwED0Ev
libvamp-hostsdk.so.3:_ZNSt5ctypeIwED1Ev
libvamp-hostsdk.so.3:_ZNSt5ctypeIwED2Ev
libvamp-hostsdk.so.3:_ZNSt6locale13_S_initializeEv
libvamp-hostsdk.so.3:_ZNSt6locale18_S_initialize_onceEv
libvamp-hostsdk.so.3:_ZNSt6locale21_S_normalize_categoryEi
libvamp-hostsdk.so.3:_ZNSt6locale5_Impl13_M_init_extraEPPNS_5facetE
libvamp-hostsdk.so.3:_ZNSt6locale5_Impl13_M_init_extraEPvS1_PKcS3_
libvamp-hostsdk.so.3:_ZNSt6locale5_Impl16_M_install_cacheEPKNS_5facetEm
libvamp-hostsdk.so.3:_ZNSt6locale5_Impl16_M_install_facetEPKNS_2idEPKNS_5facetE
libvamp-hostsdk.so.3:_ZNSt6locale5_Impl16_M_replace_facetEPKS0_PKNS_2idE
libvamp-hostsdk.so.3:_ZNSt6locale5_Impl19_M_replace_categoryEPKS0_PKPKNS_2idE
libvamp-hostsdk.so.3:_ZNSt6locale5_ImplC1ERKS0_m
libvamp-hostsdk.so.3:_ZNSt6locale5_ImplC1Em
libvamp-hostsdk.so.3:_ZNSt6locale5_ImplC2ERKS0_m
libvamp-hostsdk.so.3:_ZNSt6locale5_ImplC2Em
libvamp-hostsdk.so.3:_ZNSt6locale5_ImplD1Ev
libvamp-hostsdk.so.3:_ZNSt6locale5_ImplD2Ev
libvamp-hostsdk.so.3:_ZNSt6locale5facet13_S_get_c_nameEv
libvamp-hostsdk.so.3:_ZNSt6locale5facet15_S_get_c_localeEv
libvamp-hostsdk.so.3:_ZNSt6locale5facet17_S_clone_c_localeERP15__locale_struct
libvamp-hostsdk.so.3:_ZNSt6locale5facet18_S_create_c_localeERP15__locale_structPKcS2_
libvamp-hostsdk.so.3:_ZNSt6locale5facet18_S_initialize_onceEv
libvamp-hostsdk.so.3:_ZNSt6locale5facet19_S_destroy_c_localeERP15__locale_struct
libvamp-hostsdk.so.3:_ZNSt6locale5facet20_S_lc_ctype_c_localeEP15__locale_structPKc
libvamp-hostsdk.so.3:_ZNSt6locale5facetD0Ev
libvamp-hostsdk.so.3:_ZNSt6locale5facetD1Ev
libvamp-hostsdk.so.3:_ZNSt6locale5facetD2Ev
libvamp-hostsdk.so.3:_ZNSt6locale6globalERKS_
libvamp-hostsdk.so.3:_ZNSt6locale7classicEv
libvamp-hostsdk.so.3:_ZNSt6localeC1EPNS_5_ImplE
libvamp-hostsdk.so.3:_ZNSt6localeC1ERKS_
libvamp-hostsdk.so.3:_ZNSt6localeC1Ev
libvamp-hostsdk.so.3:_ZNSt6localeC2EPNS_5_ImplE
libvamp-hostsdk.so.3:_ZNSt6localeC2ERKS_
libvamp-hostsdk.so.3:_ZNSt6localeC2Ev
libvamp-hostsdk.so.3:_ZNSt6localeD1Ev
libvamp-hostsdk.so.3:_ZNSt6localeD2Ev
libvamp-hostsdk.so.3:_ZNSt6localeaSERKS_
libvamp-hostsdk.so.3:_ZNSt7__cxx1110moneypunctIcLb0EE24_M_initialize_moneypunctEP15__locale_structPKc
libvamp-hostsdk.so.3:_ZNSt7__cxx1110moneypunctIcLb0EED0Ev
libvamp-hostsdk.so.3:_ZNSt7__cxx1110moneypunctIcLb0EED1Ev
libvamp-hostsdk.so.3:_ZNSt7__cxx1110moneypunctIcLb0EED2Ev
libvamp-hostsdk.so.3:_ZNSt7__cxx1110moneypunctIcLb1EE24_M_initialize_moneypunctEP15__locale_structPKc
libvamp-hostsdk.so.3:_ZNSt7__cxx1110moneypunctIcLb1EED0Ev
libvamp-hostsdk.so.3:_ZNSt7__cxx1110moneypunctIcLb1EED1Ev
libvamp-hostsdk.so.3:_ZNSt7__cxx1110moneypunctIcLb1EED2Ev
libvamp-hostsdk.so.3:_ZNSt7__cxx1110moneypunctIwLb0EE24_M_initialize_moneypunctEP15__locale_structPKc
libvamp-hostsdk.so.3:_ZNSt7__cxx1110moneypunctIwLb0EED0Ev
libvamp-hostsdk.so.3:_ZNSt7__cxx1110moneypunctIwLb0EED1Ev
libvamp-hostsdk.so.3:_ZNSt7__cxx1110moneypunctIwLb0EED2Ev
libvamp-hostsdk.so.3:_ZNSt7__cxx1110moneypunctIwLb1EE24_M_initialize_moneypunctEP15__locale_structPKc
libvamp-hostsdk.so.3:_ZNSt7__cxx1110moneypunctIwLb1EED0Ev
libvamp-hostsdk.so.3:_ZNSt7__cxx1110moneypunctIwLb1EED1Ev
libvamp-hostsdk.so.3:_ZNSt7__cxx1110moneypunctIwLb1EED2Ev
libvamp-hostsdk.so.3:_ZNSt7__cxx1112basic_stringIcSt11char_traitsIcESaIcEE12_M_constructIPKcEEvT_S8_St20forward_iterator_tag
libvamp-hostsdk.so.3:_ZNSt7__cxx1112basic_stringIcSt11char_traitsIcESaIcEE12_M_constructIPcEEvT_S7_St20forward_iterator_tag
libvamp-hostsdk.so.3:_ZNSt7__cxx118numpunctIcE22_M_initialize_numpunctEP15__locale_struct
libvamp-hostsdk.so.3:_ZNSt7__cxx118numpunctIcED0Ev
libvamp-hostsdk.so.3:_ZNSt7__cxx118numpunctIcED1Ev
libvamp-hostsdk.so.3:_ZNSt7__cxx118numpunctIcED2Ev
libvamp-hostsdk.so.3:_ZNSt7__cxx118numpunctIwE22_M_initialize_numpunctEP15__locale_struct
libvamp-hostsdk.so.3:_ZNSt7__cxx118numpunctIwED0Ev
libvamp-hostsdk.so.3:_ZNSt7__cxx118numpunctIwED1Ev
libvamp-hostsdk.so.3:_ZNSt7__cxx118numpunctIwED2Ev
libvamp-hostsdk.so.3:_ZNSt7codecvtIDiDu11__mbstate_tED0Ev
libvamp-hostsdk.so.3:_ZNSt7codecvtIDiDu11__mbstate_tED1Ev
libvamp-hostsdk.so.3:_ZNSt7codecvtIDiDu11__mbstate_tED2Ev
libvamp-hostsdk.so.3:_ZNSt7codecvtIDic11__mbstate_tED0Ev
libvamp-hostsdk.so.3:_ZNSt7codecvtIDic11__mbstate_tED1Ev
libvamp-hostsdk.so.3:_ZNSt7codecvtIDic11__mbstate_tED2Ev
libvamp-hostsdk.so.3:_ZNSt7codecvtIDsDu11__mbstate_tED0Ev
libvamp-hostsdk.so.3:_ZNSt7codecvtIDsDu11__mbstate_tED1Ev
libvamp-hostsdk.so.3:_ZNSt7codecvtIDsDu11__mbstate_tED2Ev
libvamp-hostsdk.so.3:_ZNSt7codecvtIDsc11__mbstate_tED0Ev
libvamp-hostsdk.so.3:_ZNSt7codecvtIDsc11__mbstate_tED1Ev
libvamp-hostsdk.so.3:_ZNSt7codecvtIDsc11__mbstate_tED2Ev
libvamp-hostsdk.so.3:_ZNSt7codecvtIcc11__mbstate_tEC1EP15__locale_structm
libvamp-hostsdk.so.3:_ZNSt7codecvtIcc11__mbstate_tEC1Em
libvamp-hostsdk.so.3:_ZNSt7codecvtIcc11__mbstate_tEC2EP15__locale_structm
libvamp-hostsdk.so.3:_ZNSt7codecvtIcc11__mbstate_tEC2Em
libvamp-hostsdk.so.3:_ZNSt7codecvtIcc11__mbstate_tED0Ev
libvamp-hostsdk.so.3:_ZNSt7codecvtIcc11__mbstate_tED1Ev
libvamp-hostsdk.so.3:_ZNSt7codecvtIcc11__mbstate_tED2Ev
libvamp-hostsdk.so.3:_ZNSt7codecvtIwc11__mbstate_tEC1EP15__locale_structm
libvamp-hostsdk.so.3:_ZNSt7codecvtIwc11__mbstate_tEC1Em
libvamp-hostsdk.so.3:_ZNSt7codecvtIwc11__mbstate_tEC2EP15__locale_structm
libvamp-hostsdk.so.3:_ZNSt7codecvtIwc11__mbstate_tEC2Em
libvamp-hostsdk.so.3:_ZNSt7codecvtIwc11__mbstate_tED0Ev
libvamp-hostsdk.so.3:_ZNSt7codecvtIwc11__mbstate_tED1Ev
libvamp-hostsdk.so.3:_ZNSt7codecvtIwc11__mbstate_tED2Ev
libvamp-hostsdk.so.3:_ZNSt8Catalogs6_M_addEPKcSt6locale
libvamp-hostsdk.so.3:_ZNSt8Catalogs8_M_eraseEi
libvamp-hostsdk.so.3:_ZNSt8CatalogsD1Ev
libvamp-hostsdk.so.3:_ZNSt8CatalogsD2Ev
libvamp-hostsdk.so.3:_ZNSt8bad_castD0Ev
libvamp-hostsdk.so.3:_ZNSt8bad_castD1Ev
libvamp-hostsdk.so.3:_ZNSt8bad_castD2Ev
libvamp-hostsdk.so.3:_ZNSt8ios_base13_M_grow_wordsEib
libvamp-hostsdk.so.3:_ZNSt8ios_base15sync_with_stdioEb
libvamp-hostsdk.so.3:_ZNSt8ios_base17_M_call_callbacksENS_5eventE
libvamp-hostsdk.so.3:_ZNSt8ios_base17register_callbackEPFvNS_5eventERS_iEi
libvamp-hostsdk.so.3:_ZNSt8ios_base20_M_dispose_callbacksEv
libvamp-hostsdk.so.3:_ZNSt8ios_base4InitC1Ev
libvamp-hostsdk.so.3:_ZNSt8ios_base4InitC2Ev
libvamp-hostsdk.so.3:_ZNSt8ios_base4InitD1Ev
libvamp-hostsdk.so.3:_ZNSt8ios_base4InitD2Ev
libvamp-hostsdk.so.3:_ZNSt8ios_base5imbueERKSt6locale
libvamp-hostsdk.so.3:_ZNSt8ios_base6xallocEv
libvamp-hostsdk.so.3:_ZNSt8ios_base7_M_initEv
libvamp-hostsdk.so.3:_ZNSt8ios_base7_M_moveERS_
libvamp-hostsdk.so.3:_ZNSt8ios_base7_M_swapERS_
libvamp-hostsdk.so.3:_ZNSt8ios_base7failureB5cxx11C1EPKcRKSt10error_code
libvamp-hostsdk.so.3:_ZNSt8ios_base7failureB5cxx11C1ERKNSt7__cxx1112basic_stringIcSt11char_traitsIcESaIcEEE
libvamp-hostsdk.so.3:_ZNSt8ios_base7failureB5cxx11C1ERKNSt7__cxx1112basic_stringIcSt11char_traitsIcESaIcEEERKSt10error_code
libvamp-hostsdk.so.3:_ZNSt8ios_base7failureB5cxx11C2EPKcRKSt10error_code
libvamp-hostsdk.so.3:_ZNSt8ios_base7failureB5cxx11C2ERKNSt7__cxx1112basic_stringIcSt11char_traitsIcESaIcEEE
libvamp-hostsdk.so.3:_ZNSt8ios_base7failureB5cxx11C2ERKNSt7__cxx1112basic_stringIcSt11char_traitsIcESaIcEEERKSt10error_code
libvamp-hostsdk.so.3:_ZNSt8ios_base7failureB5cxx11D0Ev
libvamp-hostsdk.so.3:_ZNSt8ios_base7failureB5cxx11D1Ev
libvamp-hostsdk.so.3:_ZNSt8ios_base7failureB5cxx11D2Ev
libvamp-hostsdk.so.3:_ZNSt8ios_base7failureC1ERKSs
libvamp-hostsdk.so.3:_ZNSt8ios_base7failureC2ERKSs
libvamp-hostsdk.so.3:_ZNSt8ios_base7failureD0Ev
libvamp-hostsdk.so.3:_ZNSt8ios_base7failureD1Ev
libvamp-hostsdk.so.3:_ZNSt8ios_base7failureD2Ev
libvamp-hostsdk.so.3:_ZNSt8ios_baseC1Ev
libvamp-hostsdk.so.3:_ZNSt8ios_baseC2Ev
libvamp-hostsdk.so.3:_ZNSt8ios_baseD0Ev
libvamp-hostsdk.so.3:_ZNSt8ios_baseD1Ev
libvamp-hostsdk.so.3:_ZNSt8ios_baseD2Ev
libvamp-hostsdk.so.3:_ZNSt8numpunctIcE22_M_initialize_numpunctEP15__locale_struct
libvamp-hostsdk.so.3:_ZNSt8numpunctIcED0Ev
libvamp-hostsdk.so.3:_ZNSt8numpunctIcED1Ev
libvamp-hostsdk.so.3:_ZNSt8numpunctIcED2Ev
libvamp-hostsdk.so.3:_ZNSt8numpunctIwE22_M_initialize_numpunctEP15__locale_struct
libvamp-hostsdk.so.3:_ZNSt8numpunctIwED0Ev
libvamp-hostsdk.so.3:_ZNSt8numpunctIwED1Ev
libvamp-hostsdk.so.3:_ZNSt8numpunctIwED2Ev
libvamp-hostsdk.so.3:_ZNSt9bad_allocD0Ev
libvamp-hostsdk.so.3:_ZNSt9bad_allocD1Ev
libvamp-hostsdk.so.3:_ZNSt9bad_allocD2Ev
libvamp-hostsdk.so.3:_ZNSt9exceptionD0Ev
libvamp-hostsdk.so.3:_ZNSt9exceptionD1Ev
libvamp-hostsdk.so.3:_ZNSt9exceptionD2Ev
libvamp-hostsdk.so.3:_ZNSt9type_infoD0Ev
libvamp-hostsdk.so.3:_ZNSt9type_infoD1Ev
libvamp-hostsdk.so.3:_ZNSt9type_infoD2Ev
libvamp-hostsdk.so.3:_ZSt10unexpectedv
libvamp-hostsdk.so.3:_ZSt12get_catalogsv
libvamp-hostsdk.so.3:_ZSt13get_terminatev
libvamp-hostsdk.so.3:_ZSt13set_terminatePFvvE
libvamp-hostsdk.so.3:_ZSt14__convert_to_vIdEvPKcRT_RSt12_Ios_IostateRKP15__locale_struct
libvamp-hostsdk.so.3:_ZSt14__convert_to_vIeEvPKcRT_RSt12_Ios_IostateRKP15__locale_struct
libvamp-hostsdk.so.3:_ZSt14__convert_to_vIfEvPKcRT_RSt12_Ios_IostateRKP15__locale_struct
libvamp-hostsdk.so.3:_ZSt14get_unexpectedv
libvamp-hostsdk.so.3:_ZSt14set_unexpectedPFvvE
libvamp-hostsdk.so.3:_ZSt15get_new_handlerv
libvamp-hostsdk.so.3:_ZSt15set_new_handlerPFvvE
libvamp-hostsdk.so.3:_ZSt16__throw_bad_castv
libvamp-hostsdk.so.3:_ZSt17__istream_extractRSiPcl
libvamp-hostsdk.so.3:_ZSt17__throw_bad_allocv
libvamp-hostsdk.so.3:_ZSt17__verify_groupingPKcmRKNSt7__cxx1112basic_stringIcSt11char_traitsIcESaIcEEE
libvamp-hostsdk.so.3:_ZSt17__verify_groupingPKcmRKSs
libvamp-hostsdk.so.3:_ZSt17iostream_categoryv
libvamp-hostsdk.so.3:_ZSt18_Rb_tree_decrementPKSt18_Rb_tree_node_base
libvamp-hostsdk.so.3:_ZSt18_Rb_tree_decrementPSt18_Rb_tree_node_base
libvamp-hostsdk.so.3:_ZSt18_Rb_tree_incrementPKSt18_Rb_tree_node_base
libvamp-hostsdk.so.3:_ZSt18_Rb_tree_incrementPSt18_Rb_tree_node_base
libvamp-hostsdk.so.3:_ZSt18__throw_bad_typeidv
libvamp-hostsdk.so.3:_ZSt18uncaught_exceptionv
libvamp-hostsdk.so.3:_ZSt19__throw_ios_failurePKc
libvamp-hostsdk.so.3:_ZSt19__throw_ios_failurePKci
libvamp-hostsdk.so.3:_ZSt19__throw_logic_errorPKc
libvamp-hostsdk.so.3:_ZSt19__throw_range_errorPKc
libvamp-hostsdk.so.3:_ZSt19uncaught_exceptionsv
libvamp-hostsdk.so.3:_ZSt20_Rb_tree_black_countPKSt18_Rb_tree_node_baseS1_
libvamp-hostsdk.so.3:_ZSt20_Rb_tree_rotate_leftPSt18_Rb_tree_node_baseRS0_
libvamp-hostsdk.so.3:_ZSt20__throw_domain_errorPKc
libvamp-hostsdk.so.3:_ZSt20__throw_length_errorPKc
libvamp-hostsdk.so.3:_ZSt20__throw_out_of_rangePKc
libvamp-hostsdk.so.3:_ZSt20__throw_system_errori
libvamp-hostsdk.so.3:_ZSt21_Rb_tree_rotate_rightPSt18_Rb_tree_node_baseRS0_
libvamp-hostsdk.so.3:_ZSt21__copy_streambufs_eofIcSt11char_traitsIcEElPSt15basic_streambufIT_T0_ES6_Rb
libvamp-hostsdk.so.3:_ZSt21__copy_streambufs_eofIwSt11char_traitsIwEElPSt15basic_streambufIT_T0_ES6_Rb
libvamp-hostsdk.so.3:_ZSt21__destroy_ios_failurePv
libvamp-hostsdk.so.3:_ZSt21__throw_bad_exceptionv
libvamp-hostsdk.so.3:_ZSt21__throw_runtime_errorPKc
libvamp-hostsdk.so.3:_ZSt22__throw_overflow_errorPKc
libvamp-hostsdk.so.3:_ZSt22__verify_grouping_implPKcmS0_m
libvamp-hostsdk.so.3:_ZSt23__construct_ios_failurePvPKc
libvamp-hostsdk.so.3:_ZSt23__throw_underflow_errorPKc
libvamp-hostsdk.so.3:_ZSt24__is_ios_failure_handlerPKN10__cxxabiv117__class_type_infoE
libvamp-hostsdk.so.3:_ZSt24__narrow_multibyte_charsPKcP15__locale_struct
libvamp-hostsdk.so.3:_ZSt24__throw_invalid_argumentPKc
libvamp-hostsdk.so.3:_ZSt24__throw_out_of_range_fmtPKcz
libvamp-hostsdk.so.3:_ZSt28_Rb_tree_rebalance_for_erasePSt18_Rb_tree_node_baseRS_
libvamp-hostsdk.so.3:_ZSt28__throw_bad_array_new_lengthv
libvamp-hostsdk.so.3:_ZSt29_Rb_tree_insert_and_rebalancebPSt18_Rb_tree_node_baseS0_RS_
libvamp-hostsdk.so.3:_ZSt9terminatev
libvamp-hostsdk.so.3:_ZStplIcSt11char_traitsIcESaIcEENSt7__cxx1112basic_stringIT_T0_T1_EEPKS5_RKS8_
libvamp-hostsdk.so.3:_ZdaPv
libvamp-hostsdk.so.3:_ZdlPv
libvamp-hostsdk.so.3:_ZdlPvm
libvamp-hostsdk.so.3:_Znam
libvamp-hostsdk.so.3:_ZnamRKSt9nothrow_t
libvamp-hostsdk.so.3:_Znwm
libvamp-hostsdk.so.3:__cxa_allocate_dependent_exception
libvamp-hostsdk.so.3:__cxa_allocate_exception
libvamp-hostsdk.so.3:__cxa_bad_cast
libvamp-hostsdk.so.3:__cxa_bad_typeid
libvamp-hostsdk.so.3:__cxa_begin_catch
libvamp-hostsdk.so.3:__cxa_call_terminate
libvamp-hostsdk.so.3:__cxa_call_unexpected
libvamp-hostsdk.so.3:__cxa_current_exception_type
libvamp-hostsdk.so.3:__cxa_demangle
libvamp-hostsdk.so.3:__cxa_end_catch
libvamp-hostsdk.so.3:__cxa_free_dependent_exception
libvamp-hostsdk.so.3:__cxa_free_exception
libvamp-hostsdk.so.3:__cxa_get_exception_ptr
libvamp-hostsdk.so.3:__cxa_get_globals
libvamp-hostsdk.so.3:__cxa_get_globals_fast
libvamp-hostsdk.so.3:__cxa_guard_abort
libvamp-hostsdk.so.3:__cxa_guard_acquire
libvamp-hostsdk.so.3:__cxa_guard_release
libvamp-hostsdk.so.3:__cxa_init_primary_exception
libvamp-hostsdk.so.3:__cxa_rethrow
libvamp-hostsdk.so.3:__cxa_throw
libvamp-hostsdk.so.3:__cxa_throw_bad_array_new_length
libvamp-hostsdk.so.3:__dynamic_cast
libvamp-hostsdk.so.3:__gcclibcxx_demangle_callback
libvamp-hostsdk.so.3:__gxx_personality_v0
libvamp-hostsdk.so.3:libvamphostsdk_v_2_0_present
libvamp-hostsdk.so.3:libvamphostsdk_v_2_10_present
libvamp-hostsdk.so.3:libvamphostsdk_v_2_1_present
libvamp-hostsdk.so.3:libvamphostsdk_v_2_2_1_present
libvamp-hostsdk.so.3:libvamphostsdk_v_2_2_present
libvamp-hostsdk.so.3:libvamphostsdk_v_2_3_1_present
libvamp-hostsdk.so.3:libvamphostsdk_v_2_3_present
libvamp-hostsdk.so.3:libvamphostsdk_v_2_4_present
libvamp-hostsdk.so.3:libvamphostsdk_v_2_5_present
libvamp-hostsdk.so.3:libvamphostsdk_v_2_6_present
libvamp-hostsdk.so.3:libvamphostsdk_v_2_7_1_present
libvamp-hostsdk.so.3:libvamphostsdk_v_2_7_present
libvamp-hostsdk.so.3:libvamphostsdk_v_2_8_present
libvamp-hostsdk.so.3:libvamphostsdk_v_2_9_present
libvamp-hostsdk.so.3:vhGetLibraryCount
libvamp-hostsdk.so.3:vhGetLibraryIndex
libvamp-hostsdk.so.3:vhGetLibraryName
libvamp-hostsdk.so.3:vhGetPluginCount
libvamp-hostsdk.so.3:vhGetPluginDescriptor
libvamp-hostsdk.so.3:vhLoadLibrary
libvamp-hostsdk.so.3:vhUnloadLibrary
libvamp-sdk.so.2:_Z20_txnal_cow_string_D1Pv
libvamp-sdk.so.2:_Z23_txnal_cow_string_c_strPKv
libvamp-sdk.so.2:_Z23_txnal_sso_string_c_strPKv
libvamp-sdk.so.2:_Z26_txnal_logic_error_get_msgPv
libvamp-sdk.so.2:_Z27_txnal_cow_string_D1_commitPv
libvamp-sdk.so.2:_Z28_txnal_runtime_error_get_msgPv
libvamp-sdk.so.2:_Z35_txnal_cow_string_C1_for_exceptionsPvPKcS_
libvamp-sdk.so.2:_ZGTtNKSt11logic_error4whatEv
libvamp-sdk.so.2:_ZGTtNKSt13bad_exception4whatEv
libvamp-sdk.so.2:_ZGTtNKSt13bad_exceptionD1Ev
libvamp-sdk.so.2:_ZGTtNKSt13runtime_error4whatEv
libvamp-sdk.so.2:_ZGTtNKSt9exception4whatEv
libvamp-sdk.so.2:_ZGTtNKSt9exceptionD1Ev
libvamp-sdk.so.2:_ZGTtNSt11logic_errorC1EPKc
libvamp-sdk.so.2:_ZGTtNSt11logic_errorC1ERKNSt7__cxx1112basic_stringIcSt11char_traitsIcESaIcEEE
libvamp-sdk.so.2:_ZGTtNSt11logic_errorC2EPKc
libvamp-sdk.so.2:_ZGTtNSt11logic_errorC2ERKNSt7__cxx1112basic_stringIcSt11char_traitsIcESaIcEEE
libvamp-sdk.so.2:_ZGTtNSt11logic_errorD0Ev
libvamp-sdk.so.2:_ZGTtNSt11logic_errorD1Ev
libvamp-sdk.so.2:_ZGTtNSt11logic_errorD2Ev
libvamp-sdk.so.2:_ZGTtNSt11range_errorC1EPKc
libvamp-sdk.so.2:_ZGTtNSt11range_errorC1ERKNSt7__cxx1112basic_stringIcSt11char_traitsIcESaIcEEE
libvamp-sdk.so.2:_ZGTtNSt11range_errorC2EPKc
libvamp-sdk.so.2:_ZGTtNSt11range_errorC2ERKNSt7__cxx1112basic_stringIcSt11char_traitsIcESaIcEEE
libvamp-sdk.so.2:_ZGTtNSt11range_errorD0Ev
libvamp-sdk.so.2:_ZGTtNSt11range_errorD1Ev
libvamp-sdk.so.2:_ZGTtNSt11range_errorD2Ev
libvamp-sdk.so.2:_ZGTtNSt12domain_errorC1EPKc
libvamp-sdk.so.2:_ZGTtNSt12domain_errorC1ERKNSt7__cxx1112basic_stringIcSt11char_traitsIcESaIcEEE
libvamp-sdk.so.2:_ZGTtNSt12domain_errorC2EPKc
libvamp-sdk.so.2:_ZGTtNSt12domain_errorC2ERKNSt7__cxx1112basic_stringIcSt11char_traitsIcESaIcEEE
libvamp-sdk.so.2:_ZGTtNSt12domain_errorD0Ev
libvamp-sdk.so.2:_ZGTtNSt12domain_errorD1Ev
libvamp-sdk.so.2:_ZGTtNSt12domain_errorD2Ev
libvamp-sdk.so.2:_ZGTtNSt12length_errorC1EPKc
libvamp-sdk.so.2:_ZGTtNSt12length_errorC1ERKNSt7__cxx1112basic_stringIcSt11char_traitsIcESaIcEEE
libvamp-sdk.so.2:_ZGTtNSt12length_errorC2EPKc
libvamp-sdk.so.2:_ZGTtNSt12length_errorC2ERKNSt7__cxx1112basic_stringIcSt11char_traitsIcESaIcEEE
libvamp-sdk.so.2:_ZGTtNSt12length_errorD0Ev
libvamp-sdk.so.2:_ZGTtNSt12length_errorD1Ev
libvamp-sdk.so.2:_ZGTtNSt12length_errorD2Ev
libvamp-sdk.so.2:_ZGTtNSt12out_of_rangeC1EPKc
libvamp-sdk.so.2:_ZGTtNSt12out_of_rangeC1ERKNSt7__cxx1112basic_stringIcSt11char_traitsIcESaIcEEE
libvamp-sdk.so.2:_ZGTtNSt12out_of_rangeC2EPKc
libvamp-sdk.so.2:_ZGTtNSt12out_of_rangeC2ERKNSt7__cxx1112basic_stringIcSt11char_traitsIcESaIcEEE
libvamp-sdk.so.2:_ZGTtNSt12out_of_rangeD0Ev
libvamp-sdk.so.2:_ZGTtNSt12out_of_rangeD1Ev
libvamp-sdk.so.2:_ZGTtNSt12out_of_rangeD2Ev
libvamp-sdk.so.2:_ZGTtNSt13runtime_errorC1EPKc
libvamp-sdk.so.2:_ZGTtNSt13runtime_errorC1ERKNSt7__cxx1112basic_stringIcSt11char_traitsIcESaIcEEE
libvamp-sdk.so.2:_ZGTtNSt13runtime_errorC2EPKc
libvamp-sdk.so.2:_ZGTtNSt13runtime_errorC2ERKNSt7__cxx1112basic_stringIcSt11char_traitsIcESaIcEEE
libvamp-sdk.so.2:_ZGTtNSt13runtime_errorD0Ev
libvamp-sdk.so.2:_ZGTtNSt13runtime_errorD1Ev
libvamp-sdk.so.2:_ZGTtNSt13runtime_errorD2Ev
libvamp-sdk.so.2:_ZGTtNSt14overflow_errorC1EPKc
libvamp-sdk.so.2:_ZGTtNSt14overflow_errorC1ERKNSt7__cxx1112basic_stringIcSt11char_traitsIcESaIcEEE
libvamp-sdk.so.2:_ZGTtNSt14overflow_errorC2EPKc
libvamp-sdk.so.2:_ZGTtNSt14overflow_errorC2ERKNSt7__cxx1112basic_stringIcSt11char_traitsIcESaIcEEE
libvamp-sdk.so.2:_ZGTtNSt14overflow_errorD0Ev
libvamp-sdk.so.2:_ZGTtNSt14overflow_errorD1Ev
libvamp-sdk.so.2:_ZGTtNSt14overflow_errorD2Ev
libvamp-sdk.so.2:_ZGTtNSt15underflow_errorC1EPKc
libvamp-sdk.so.2:_ZGTtNSt15underflow_errorC1ERKNSt7__cxx1112basic_stringIcSt11char_traitsIcESaIcEEE
libvamp-sdk.so.2:_ZGTtNSt15underflow_errorC2EPKc
libvamp-sdk.so.2:_ZGTtNSt15underflow_errorC2ERKNSt7__cxx1112basic_stringIcSt11char_traitsIcESaIcEEE
libvamp-sdk.so.2:_ZGTtNSt15underflow_errorD0Ev
libvamp-sdk.so.2:_ZGTtNSt15underflow_errorD1Ev
libvamp-sdk.so.2:_ZGTtNSt15underflow_errorD2Ev
libvamp-sdk.so.2:_ZGTtNSt16invalid_argumentC1EPKc
libvamp-sdk.so.2:_ZGTtNSt16invalid_argumentC1ERKNSt7__cxx1112basic_stringIcSt11char_traitsIcESaIcEEE
libvamp-sdk.so.2:_ZGTtNSt16invalid_argumentC2EPKc
libvamp-sdk.so.2:_ZGTtNSt16invalid_argumentC2ERKNSt7__cxx1112basic_stringIcSt11char_traitsIcESaIcEEE
libvamp-sdk.so.2:_ZGTtNSt16invalid_argumentD0Ev
libvamp-sdk.so.2:_ZGTtNSt16invalid_argumentD1Ev
libvamp-sdk.so.2:_ZGTtNSt16invalid_argumentD2Ev
libvamp-sdk.so.2:_ZN10__cxxabiv111__terminateEPFvvE
libvamp-sdk.so.2:_ZN10__cxxabiv112__unexpectedEPFvvE
libvamp-sdk.so.2:_ZN10__cxxabiv115__forced_unwindD0Ev
libvamp-sdk.so.2:_ZN10__cxxabiv115__forced_unwindD1Ev
libvamp-sdk.so.2:_ZN10__cxxabiv115__forced_unwindD2Ev
libvamp-sdk.so.2:_ZN10__cxxabiv117__class_type_infoD0Ev
libvamp-sdk.so.2:_ZN10__cxxabiv117__class_type_infoD1Ev
libvamp-sdk.so.2:_ZN10__cxxabiv117__class_type_infoD2Ev
libvamp-sdk.so.2:_ZN10__cxxabiv119__foreign_exceptionD0Ev
libvamp-sdk.so.2:_ZN10__cxxabiv119__foreign_exceptionD1Ev
libvamp-sdk.so.2:_ZN10__cxxabiv119__foreign_exceptionD2Ev
libvamp-sdk.so.2:_ZN10__cxxabiv120__si_class_type_infoD0Ev
libvamp-sdk.so.2:_ZN10__cxxabiv120__si_class_type_infoD1Ev
libvamp-sdk.so.2:_ZN10__cxxabiv120__si_class_type_infoD2Ev
libvamp-sdk.so.2:_ZN10__cxxabiv121__vmi_class_type_infoD0Ev
libvamp-sdk.so.2:_ZN10__cxxabiv121__vmi_class_type_infoD1Ev
libvamp-sdk.so.2:_ZN10__cxxabiv121__vmi_class_type_infoD2Ev
libvamp-sdk.so.2:_ZN11_VampPlugin4Kiss13vamp_kiss_fftEPNS0_19vamp_kiss_fft_stateEPKNS0_17vamp_kiss_fft_cpxEPS3_
libvamp-sdk.so.2:_ZN11_VampPlugin4Kiss14vamp_kiss_fftrEPNS0_20vamp_kiss_fftr_stateEPKdPNS0_17vamp_kiss_fft_cpxE
libvamp-sdk.so.2:_ZN11_VampPlugin4Kiss15vamp_kiss_fftriEPNS0_20vamp_kiss_fftr_stateEPKNS0_17vamp_kiss_fft_cpxEPd
libvamp-sdk.so.2:_ZN11_VampPlugin4Kiss18vamp_kiss_fft_freeEPv
libvamp-sdk.so.2:_ZN11_VampPlugin4Kiss19vamp_kiss_fft_allocEiiPvPm
libvamp-sdk.so.2:_ZN11_VampPlugin4Kiss19vamp_kiss_fftr_freeEPv
libvamp-sdk.so.2:_ZN11_VampPlugin4Kiss20vamp_kiss_fft_strideEPNS0_19vamp_kiss_fft_stateEPKNS0_17vamp_kiss_fft_cpxEPS3_i
libvamp-sdk.so.2:_ZN11_VampPlugin4Kiss20vamp_kiss_fftr_allocEiiPvPm
libvamp-sdk.so.2:_ZN11_VampPlugin4Kiss21vamp_kiss_fft_cleanupEv
libvamp-sdk.so.2:_ZN11_VampPlugin4Kiss28vamp_kiss_fft_next_fast_sizeEi
libvamp-sdk.so.2:_ZN11_VampPlugin4Vamp10FFTComplex7forwardEPKdPd
libvamp-sdk.so.2:_ZN11_VampPlugin4Vamp10FFTComplex7inverseEPKdPd
libvamp-sdk.so.2:_ZN11_VampPlugin4Vamp10FFTComplexC1Ej
libvamp-sdk.so.2:_ZN11_VampPlugin4Vamp10FFTComplexC2Ej
libvamp-sdk.so.2:_ZN11_VampPlugin4Vamp10FFTComplexD1Ev
libvamp-sdk.so.2:_ZN11_VampPlugin4Vamp10FFTComplexD2Ev
libvamp-sdk.so.2:_ZN11_VampPlugin4Vamp17PluginAdapterBase13getDescriptorEv
libvamp-sdk.so.2:_ZN11_VampPlugin4Vamp17PluginAdapterBase4Impl11vampCleanupEPv
libvamp-sdk.so.2:_ZN11_VampPlugin4Vamp17PluginAdapterBase4Impl11vampProcessEPvPKPKfii
libvamp-sdk.so.2:_ZN11_VampPlugin4Vamp17PluginAdapterBase4Impl13getDescriptorEv
libvamp-sdk.so.2:_ZN11_VampPlugin4Vamp17PluginAdapterBase4Impl13lookupAdapterEPv
libvamp-sdk.so.2:_ZN11_VampPlugin4Vamp17PluginAdapterBase4Impl14checkOutputMapEPNS0_6PluginE
libvamp-sdk.so.2:_ZN11_VampPlugin4Vamp17PluginAdapterBase4Impl14getOutputCountEPNS0_6PluginE
libvamp-sdk.so.2:_ZN11_VampPlugin4Vamp17PluginAdapterBase4Impl14vampInitialiseEPvjjj
libvamp-sdk.so.2:_ZN11_VampPlugin4Vamp17PluginAdapterBase4Impl15convertFeaturesEPNS0_6PluginERKSt3mapIiSt6vectorINS3_7FeatureESaIS7_EESt4lessIiESaISt4pairIKiS9_EEE
libvamp-sdk.so.2:_ZN11_VampPlugin4Vamp17PluginAdapterBase4Impl15vampInstantiateEPK21_VampPluginDescriptorf
libvamp-sdk.so.2:_ZN11_VampPlugin4Vamp17PluginAdapterBase4Impl16vampGetParameterEPvi
libvamp-sdk.so.2:_ZN11_VampPlugin4Vamp17PluginAdapterBase4Impl16vampSetParameterEPvif
libvamp-sdk.so.2:_ZN11_VampPlugin4Vamp17PluginAdapterBase4Impl17vampSelectProgramEPvj
libvamp-sdk.so.2:_ZN11_VampPlugin4Vamp17PluginAdapterBase4Impl18markOutputsChangedEPNS0_6PluginE
libvamp-sdk.so.2:_ZN11_VampPlugin4Vamp17PluginAdapterBase4Impl18vampGetOutputCountEPv
libvamp-sdk.so.2:_ZN11_VampPlugin4Vamp17PluginAdapterBase4Impl19getOutputDescriptorEPNS0_6PluginEj
libvamp-sdk.so.2:_ZN11_VampPlugin4Vamp17PluginAdapterBase4Impl20getRemainingFeaturesEPNS0_6PluginE
libvamp-sdk.so.2:_ZN11_VampPlugin4Vamp17PluginAdapterBase4Impl21vampGetCurrentProgramEPv
libvamp-sdk.so.2:_ZN11_VampPlugin4Vamp17PluginAdapterBase4Impl21vampReleaseFeatureSetEP16_VampFeatureList
libvamp-sdk.so.2:_ZN11_VampPlugin4Vamp17PluginAdapterBase4Impl22vampGetMaxChannelCountEPv
libvamp-sdk.so.2:_ZN11_VampPlugin4Vamp17PluginAdapterBase4Impl22vampGetMinChannelCountEPv
libvamp-sdk.so.2:_ZN11_VampPlugin4Vamp17PluginAdapterBase4Impl23vampGetOutputDescriptorEPvj
libvamp-sdk.so.2:_ZN11_VampPlugin4Vamp17PluginAdapterBase4Impl24vampGetPreferredStepSizeEPv
libvamp-sdk.so.2:_ZN11_VampPlugin4Vamp17PluginAdapterBase4Impl24vampGetRemainingFeaturesEPv
libvamp-sdk.so.2:_ZN11_VampPlugin4Vamp17PluginAdapterBase4Impl25vampGetPreferredBlockSizeEPv
libvamp-sdk.so.2:_ZN11_VampPlugin4Vamp17PluginAdapterBase4Impl27vampReleaseOutputDescriptorEP21_VampOutputDescriptor
libvamp-sdk.so.2:_ZN11_VampPlugin4Vamp17PluginAdapterBase4Impl7cleanupEPNS0_6PluginE
libvamp-sdk.so.2:_ZN11_VampPlugin4Vamp17PluginAdapterBase4Impl7processEPNS0_6PluginEPKPKfii
libvamp-sdk.so.2:_ZN11_VampPlugin4Vamp17PluginAdapterBase4Impl8resizeFLEPNS0_6PluginEim
libvamp-sdk.so.2:_ZN11_VampPlugin4Vamp17PluginAdapterBase4Impl8resizeFSEPNS0_6PluginEi
libvamp-sdk.so.2:_ZN11_VampPlugin4Vamp17PluginAdapterBase4Impl8resizeFVEPNS0_6PluginEiim
libvamp-sdk.so.2:_ZN11_VampPlugin4Vamp17PluginAdapterBase4Impl9vampResetEPv
libvamp-sdk.so.2:_ZN11_VampPlugin4Vamp17PluginAdapterBase4ImplC1EPS1_
libvamp-sdk.so.2:_ZN11_VampPlugin4Vamp17PluginAdapterBase4ImplC2EPS1_
libvamp-sdk.so.2:_ZN11_VampPlugin4Vamp17PluginAdapterBase4ImplD1Ev
libvamp-sdk.so.2:_ZN11_VampPlugin4Vamp17PluginAdapterBase4ImplD2Ev
libvamp-sdk.so.2:_ZN11_VampPlugin4Vamp17PluginAdapterBaseC1Ev
libvamp-sdk.so.2:_ZN11_VampPlugin4Vamp17PluginAdapterBaseC2Ev
libvamp-sdk.so.2:_ZN11_VampPlugin4Vamp17PluginAdapterBaseD0Ev
libvamp-sdk.so.2:_ZN11_VampPlugin4Vamp17PluginAdapterBaseD1Ev
libvamp-sdk.so.2:_ZN11_VampPlugin4Vamp17PluginAdapterBaseD2Ev
libvamp-sdk.so.2:_ZN11_VampPlugin4Vamp3FFT7forwardEjPKdS3_PdS4_
libvamp-sdk.so.2:_ZN11_VampPlugin4Vamp3FFT7inverseEjPKdS3_PdS4_
libvamp-sdk.so.2:_ZN11_VampPlugin4Vamp7FFTReal7forwardEPKdPd
libvamp-sdk.so.2:_ZN11_VampPlugin4Vamp7FFTReal7inverseEPKdPd
libvamp-sdk.so.2:_ZN11_VampPlugin4Vamp7FFTRealC1Ej
libvamp-sdk.so.2:_ZN11_VampPlugin4Vamp7FFTRealC2Ej
libvamp-sdk.so.2:_ZN11_VampPlugin4Vamp7FFTRealD1Ev
libvamp-sdk.so.2:_ZN11_VampPlugin4Vamp7FFTRealD2Ev
libvamp-sdk.so.2:_ZN11_VampPlugin4Vamp8RealTime11fromSecondsEd
libvamp-sdk.so.2:_ZN11_VampPlugin4Vamp8RealTime11fromTimevalERK7timeval
libvamp-sdk.so.2:_ZN11_VampPlugin4Vamp8RealTime14frame2RealTimeElj
libvamp-sdk.so.2:_ZN11_VampPlugin4Vamp8RealTime14realTime2FrameERKS1_j
libvamp-sdk.so.2:_ZN11_VampPlugin4Vamp8RealTime16fromMillisecondsEi
libvamp-sdk.so.2:_ZN11_VampPlugin4Vamp8RealTimeC1Eii
libvamp-sdk.so.2:_ZN11_VampPlugin4Vamp8RealTimeC2Eii
libvamp-sdk.so.2:_ZN11_VampPlugin4VamplsERSoRKNS0_8RealTimeE
libvamp-sdk.so.2:_ZN9__gnu_cxx15__concat_size_tEPcmm
libvamp-sdk.so.2:_ZN9__gnu_cxx15__snprintf_liteEPcmPKcP13__va_list_tag
libvamp-sdk.so.2:_ZN9__gnu_cxx20recursive_init_errorC1Ev
libvamp-sdk.so.2:_ZN9__gnu_cxx20recursive_init_errorC2Ev
libvamp-sdk.so.2:_ZN9__gnu_cxx20recursive_init_errorD0Ev
libvamp-sdk.so.2:_ZN9__gnu_cxx20recursive_init_errorD1Ev
libvamp-sdk.so.2:_ZN9__gnu_cxx20recursive_init_errorD2Ev
libvamp-sdk.so.2:_ZN9__gnu_cxx26__throw_insufficient_spaceEPKcS1_
libvamp-sdk.so.2:_ZN9__gnu_cxx27__verbose_terminate_handlerEv
libvamp-sdk.so.2:_ZN9__gnu_cxx9__freeresEv
libvamp-sdk.so.2:_ZNK10__cxxabiv117__class_type_info10__do_catchEPKSt9type_infoPPvj
libvamp-sdk.so.2:_ZNK10__cxxabiv117__class_type_info11__do_upcastEPKS0_PKvRNS0_15__upcast_resultE
libvamp-sdk.so.2:_ZNK10__cxxabiv117__class_type_info11__do_upcastEPKS0_PPv
libvamp-sdk.so.2:_ZNK10__cxxabiv117__class_type_info12__do_dyncastElNS0_10__sub_kindEPKS0_PKvS3_S5_RNS0_16__dyncast_resultE
libvamp-sdk.so.2:_ZNK10__cxxabiv117__class_type_info20__do_find_public_srcElPKvPKS0_S2_
libvamp-sdk.so.2:_ZNK10__cxxabiv120__si_class_type_info11__do_upcastEPKNS_17__class_type_infoEPKvRNS1_15__upcast_resultE
libvamp-sdk.so.2:_ZNK10__cxxabiv120__si_class_type_info12__do_dyncastElNS_17__class_type_info10__sub_kindEPKS1_PKvS4_S6_RNS1_16__dyncast_resultE
libvamp-sdk.so.2:_ZNK10__cxxabiv120__si_class_type_info20__do_find_public_srcElPKvPKNS_17__class_type_infoES2_
libvamp-sdk.so.2:_ZNK10__cxxabiv121__vmi_class_type_info11__do_upcastEPKNS_17__class_type_infoEPKvRNS1_15__upcast_resultE
libvamp-sdk.so.2:_ZNK10__cxxabiv121__vmi_class_type_info12__do_dyncastElNS_17__class_type_info10__sub_kindEPKS1_PKvS4_S6_RNS1_16__dyncast_resultE
libvamp-sdk.so.2:_ZNK10__cxxabiv121__vmi_class_type_info20__do_find_public_srcElPKvPKNS_17__class_type_infoES2_
libvamp-sdk.so.2:_ZNK11_VampPlugin4Vamp8RealTime6toTextB5cxx11Eb
libvamp-sdk.so.2:_ZNK11_VampPlugin4Vamp8RealTime8toStringB5cxx11Ev
libvamp-sdk.so.2:_ZNK11_VampPlugin4Vamp8RealTimedvERKS1_
libvamp-sdk.so.2:_ZNK11_VampPlugin4Vamp8RealTimedvEi
libvamp-sdk.so.2:_ZNKSt10bad_typeid4whatEv
libvamp-sdk.so.2:_ZNKSt10error_code23default_error_conditionEv
libvamp-sdk.so.2:_ZNKSt11__timepunctIcE6_M_putEPcmPKcPK2tm
libvamp-sdk.so.2:_ZNKSt11__timepunctIwE6_M_putEPwmPKwPK2tm
libvamp-sdk.so.2:_ZNKSt11logic_error4whatEv
libvamp-sdk.so.2:_ZNKSt12__basic_fileIcE7is_openEv
libvamp-sdk.so.2:_ZNKSt13bad_exception4whatEv
libvamp-sdk.so.2:_ZNKSt13random_device13_M_getentropyEv
libvamp-sdk.so.2:_ZNKSt13runtime_error4whatEv
libvamp-sdk.so.2:_ZNKSt19__codecvt_utf8_baseIDiE10do_unshiftER11__mbstate_tPcS3_RS3_
libvamp-sdk.so.2:_ZNKSt19__codecvt_utf8_baseIDiE11do_encodingEv
libvamp-sdk.so.2:_ZNKSt19__codecvt_utf8_baseIDiE13do_max_lengthEv
libvamp-sdk.so.2:_ZNKSt19__codecvt_utf8_baseIDiE16do_always_noconvEv
libvamp-sdk.so.2:_ZNKSt19__codecvt_utf8_baseIDiE5do_inER11__mbstate_tPKcS4_RS4_PDiS6_RS6_
libvamp-sdk.so.2:_ZNKSt19__codecvt_utf8_baseIDiE6do_outER11__mbstate_tPKDiS4_RS4_PcS6_RS6_
libvamp-sdk.so.2:_ZNKSt19__codecvt_utf8_baseIDiE9do_lengthER11__mbstate_tPKcS4_m
libvamp-sdk.so.2:_ZNKSt19__codecvt_utf8_baseIDsE10do_unshiftER11__mbstate_tPcS3_RS3_
libvamp-sdk.so.2:_ZNKSt19__codecvt_utf8_baseIDsE11do_encodingEv
libvamp-sdk.so.2:_ZNKSt19__codecvt_utf8_baseIDsE13do_max_lengthEv
libvamp-sdk.so.2:_ZNKSt19__codecvt_utf8_baseIDsE16do_always_noconvEv
libvamp-sdk.so.2:_ZNKSt19__codecvt_utf8_baseIDsE5do_inER11__mbstate_tPKcS4_RS4_PDsS6_RS6_
libvamp-sdk.so.2:_ZNKSt19__codecvt_utf8_baseIDsE6do_outER11__mbstate_tPKDsS4_RS4_PcS6_RS6_
libvamp-sdk.so.2:_ZNKSt19__codecvt_utf8_baseIDsE9do_lengthER11__mbstate_tPKcS4_m
libvamp-sdk.so.2:_ZNKSt19__codecvt_utf8_baseIwE10do_unshiftER11__mbstate_tPcS3_RS3_
libvamp-sdk.so.2:_ZNKSt19__codecvt_utf8_baseIwE11do_encodingEv
libvamp-sdk.so.2:_ZNKSt19__codecvt_utf8_baseIwE13do_max_lengthEv
libvamp-sdk.so.2:_ZNKSt19__codecvt_utf8_baseIwE16do_always_noconvEv
libvamp-sdk.so.2:_ZNKSt19__codecvt_utf8_baseIwE5do_inER11__mbstate_tPKcS4_RS4_PwS6_RS6_
libvamp-sdk.so.2:_ZNKSt19__codecvt_utf8_baseIwE6do_outER11__mbstate_tPKwS4_RS4_PcS6_RS6_
libvamp-sdk.so.2:_ZNKSt19__codecvt_utf8_baseIwE9do_lengthER11__mbstate_tPKcS4_m
libvamp-sdk.so.2:_ZNKSt19__iosfail_type_info11__do_upcastEPKN10__cxxabiv117__class_type_infoEPPv
libvamp-sdk.so.2:_ZNKSt20__codecvt_utf16_baseIDiE10do_unshiftER11__mbstate_tPcS3_RS3_
libvamp-sdk.so.2:_ZNKSt20__codecvt_utf16_baseIDiE11do_encodingEv
libvamp-sdk.so.2:_ZNKSt20__codecvt_utf16_baseIDiE13do_max_lengthEv
libvamp-sdk.so.2:_ZNKSt20__codecvt_utf16_baseIDiE16do_always_noconvEv
libvamp-sdk.so.2:_ZNKSt20__codecvt_utf16_baseIDiE5do_inER11__mbstate_tPKcS4_RS4_PDiS6_RS6_
libvamp-sdk.so.2:_ZNKSt20__codecvt_utf16_baseIDiE6do_outER11__mbstate_tPKDiS4_RS4_PcS6_RS6_
libvamp-sdk.so.2:_ZNKSt20__codecvt_utf16_baseIDiE9do_lengthER11__mbstate_tPKcS4_m
libvamp-sdk.so.2:_ZNKSt20__codecvt_utf16_baseIDsE10do_unshiftER11__mbstate_tPcS3_RS3_
libvamp-sdk.so.2:_ZNKSt20__codecvt_utf16_baseIDsE11do_encodingEv
libvamp-sdk.so.2:_ZNKSt20__codecvt_utf16_baseIDsE13do_max_lengthEv
libvamp-sdk.so.2:_ZNKSt20__codecvt_utf16_baseIDsE16do_always_noconvEv
libvamp-sdk.so.2:_ZNKSt20__codecvt_utf16_baseIDsE5do_inER11__mbstate_tPKcS4_RS4_PDsS6_RS6_
libvamp-sdk.so.2:_ZNKSt20__codecvt_utf16_baseIDsE6do_outER11__mbstate_tPKDsS4_RS4_PcS6_RS6_
libvamp-sdk.so.2:_ZNKSt20__codecvt_utf16_baseIDsE9do_lengthER11__mbstate_tPKcS4_m
libvamp-sdk.so.2:_ZNKSt20__codecvt_utf16_baseIwE10do_unshiftER11__mbstate_tPcS3_RS3_
libvamp-sdk.so.2:_ZNKSt20__codecvt_utf16_baseIwE11do_encodingEv
libvamp-sdk.so.2:_ZNKSt20__codecvt_utf16_baseIwE13do_max_lengthEv
libvamp-sdk.so.2:_ZNKSt20__codecvt_utf16_baseIwE16do_always_noconvEv
libvamp-sdk.so.2:_ZNKSt20__codecvt_utf16_baseIwE5do_inER11__mbstate_tPKcS4_RS4_PwS6_RS6_
libvamp-sdk.so.2:_ZNKSt20__codecvt_utf16_baseIwE6do_outER11__mbstate_tPKwS4_RS4_PcS6_RS6_
libvamp-sdk.so.2:_ZNKSt20__codecvt_utf16_baseIwE9do_lengthER11__mbstate_tPKcS4_m
libvamp-sdk.so.2:_ZNKSt20bad_array_new_length4whatEv
libvamp-sdk.so.2:_ZNKSt25__codecvt_utf8_utf16_baseIDiE10do_unshiftER11__mbstate_tPcS3_RS3_
libvamp-sdk.so.2:_ZNKSt25__codecvt_utf8_utf16_baseIDiE11do_encodingEv
libvamp-sdk.so.2:_ZNKSt25__codecvt_utf8_utf16_baseIDiE13do_max_lengthEv
libvamp-sdk.so.2:_ZNKSt25__codecvt_utf8_utf16_baseIDiE16do_always_noconvEv
libvamp-sdk.so.2:_ZNKSt25__codecvt_utf8_utf16_baseIDiE5do_inER11__mbstate_tPKcS4_RS4_PDiS6_RS6_
libvamp-sdk.so.2:_ZNKSt25__codecvt_utf8_utf16_baseIDiE6do_outER11__mbstate_tPKDiS4_RS4_PcS6_RS6_
libvamp-sdk.so.2:_ZNKSt25__codecvt_utf8_utf16_baseIDiE9do_lengthER11__mbstate_tPKcS4_m
libvamp-sdk.so.2:_ZNKSt25__codecvt_utf8_utf16_baseIDsE10do_unshiftER11__mbstate_tPcS3_RS3_
libvamp-sdk.so.2:_ZNKSt25__codecvt_utf8_utf16_baseIDsE11do_encodingEv
libvamp-sdk.so.2:_ZNKSt25__codecvt_utf8_utf16_baseIDsE13do_max_lengthEv
libvamp-sdk.so.2:_ZNKSt25__codecvt_utf8_utf16_baseIDsE16do_always_noconvEv
libvamp-sdk.so.2:_ZNKSt25__codecvt_utf8_utf16_baseIDsE5do_inER11__mbstate_tPKcS4_RS4_PDsS6_RS6_
libvamp-sdk.so.2:_ZNKSt25__codecvt_utf8_utf16_baseIDsE6do_outER11__mbstate_tPKDsS4_RS4_PcS6_RS6_
libvamp-sdk.so.2:_ZNKSt25__codecvt_utf8_utf16_baseIDsE9do_lengthER11__mbstate_tPKcS4_m
libvamp-sdk.so.2:_ZNKSt25__codecvt_utf8_utf16_baseIwE10do_unshiftER11__mbstate_tPcS3_RS3_
libvamp-sdk.so.2:_ZNKSt25__codecvt_utf8_utf16_baseIwE11do_encodingEv
libvamp-sdk.so.2:_ZNKSt25__codecvt_utf8_utf16_baseIwE13do_max_lengthEv
libvamp-sdk.so.2:_ZNKSt25__codecvt_utf8_utf16_baseIwE16do_always_noconvEv
libvamp-sdk.so.2:_ZNKSt25__codecvt_utf8_utf16_baseIwE5do_inER11__mbstate_tPKcS4_RS4_PwS6_RS6_
libvamp-sdk.so.2:_ZNKSt25__codecvt_utf8_utf16_baseIwE6do_outER11__mbstate_tPKwS4_RS4_PcS6_RS6_
libvamp-sdk.so.2:_ZNKSt25__codecvt_utf8_utf16_baseIwE9do_lengthER11__mbstate_tPKcS4_m
libvamp-sdk.so.2:_ZNKSt3_V214error_category10_M_messageB5cxx11Ei
libvamp-sdk.so.2:_ZNKSt3_V214error_category10_M_messageEi
libvamp-sdk.so.2:_ZNKSt3_V214error_category10equivalentERKSt10error_codei
libvamp-sdk.so.2:_ZNKSt3_V214error_category10equivalentEiRKSt15error_condition
libvamp-sdk.so.2:_ZNKSt3_V214error_category23default_error_conditionEi
libvamp-sdk.so.2:_ZNKSt5ctypeIcE10do_tolowerEPcPKc
libvamp-sdk.so.2:_ZNKSt5ctypeIcE10do_tolowerEc
libvamp-sdk.so.2:_ZNKSt5ctypeIcE10do_toupperEPcPKc
libvamp-sdk.so.2:_ZNKSt5ctypeIcE10do_toupperEc
libvamp-sdk.so.2:_ZNKSt5ctypeIcE13_M_widen_initEv
libvamp-sdk.so.2:_ZNKSt5ctypeIcE14_M_narrow_initEv
libvamp-sdk.so.2:_ZNKSt5ctypeIwE10do_scan_isEtPKwS2_
libvamp-sdk.so.2:_ZNKSt5ctypeIwE10do_tolowerEPwPKw
libvamp-sdk.so.2:_ZNKSt5ctypeIwE10do_tolowerEw
libvamp-sdk.so.2:_ZNKSt5ctypeIwE10do_toupperEPwPKw
libvamp-sdk.so.2:_ZNKSt5ctypeIwE10do_toupperEw
libvamp-sdk.so.2:_ZNKSt5ctypeIwE11do_scan_notEtPKwS2_
libvamp-sdk.so.2:_ZNKSt5ctypeIwE19_M_convert_to_wmaskEt
libvamp-sdk.so.2:_ZNKSt5ctypeIwE5do_isEPKwS2_Pt
libvamp-sdk.so.2:_ZNKSt5ctypeIwE5do_isEtw
libvamp-sdk.so.2:_ZNKSt5ctypeIwE8do_widenEPKcS2_Pw
libvamp-sdk.so.2:_ZNKSt5ctypeIwE8do_widenEc
libvamp-sdk.so.2:_ZNKSt5ctypeIwE9do_narrowEPKwS2_cPc
libvamp-sdk.so.2:_ZNKSt5ctypeIwE9do_narrowEwc
libvamp-sdk.so.2:_ZNKSt6locale2id5_M_idEv
libvamp-sdk.so.2:_ZNKSt6locale4nameB5cxx11Ev
libvamp-sdk.so.2:_ZNKSt6locale4nameEv
libvamp-sdk.so.2:_ZNKSt6locale5facet11_M_cow_shimEPKNS_2idE
libvamp-sdk.so.2:_ZNKSt6locale5facet11_M_sso_shimEPKNS_2idE
libvamp-sdk.so.2:_ZNKSt6localeeqERKS_
libvamp-sdk.so.2:_ZNKSt7__cxx117collateIcE10_M_compareEPKcS3_
libvamp-sdk.so.2:_ZNKSt7__cxx117collateIcE12_M_transformEPcPKcm
libvamp-sdk.so.2:_ZNKSt7__cxx117collateIwE10_M_compareEPKwS3_
libvamp-sdk.so.2:_ZNKSt7__cxx117collateIwE12_M_transformEPwPKwm
libvamp-sdk.so.2:_ZNKSt7__cxx118messagesIcE6do_getEiiiRKNS_12basic_stringIcSt11char_traitsIcESaIcEEE
libvamp-sdk.so.2:_ZNKSt7__cxx118messagesIcE7do_openERKNS_12basic_stringIcSt11char_traitsIcESaIcEEERKSt6locale
libvamp-sdk.so.2:_ZNKSt7__cxx118messagesIcE8do_closeEi
libvamp-sdk.so.2:_ZNKSt7__cxx118messagesIwE6do_getEiiiRKNS_12basic_stringIwSt11char_traitsIwESaIwEEE
libvamp-sdk.so.2:_ZNKSt7__cxx118messagesIwE7do_openERKNS_12basic_stringIcSt11char_traitsIcESaIcEEERKSt6locale
libvamp-sdk.so.2:_ZNKSt7__cxx118messagesIwE8do_closeEi
libvamp-sdk.so.2:_ZNKSt7codecvtIDiDu11__mbstate_tE10do_unshiftERS0_PDuS3_RS3_
libvamp-sdk.so.2:_ZNKSt7codecvtIDiDu11__mbstate_tE11do_encodingEv
libvamp-sdk.so.2:_ZNKSt7codecvtIDiDu11__mbstate_tE13do_max_lengthEv
libvamp-sdk.so.2:_ZNKSt7codecvtIDiDu11__mbstate_tE16do_always_noconvEv
libvamp-sdk.so.2:_ZNKSt7codecvtIDiDu11__mbstate_tE5do_inERS0_PKDuS4_RS4_PDiS6_RS6_
libvamp-sdk.so.2:_ZNKSt7codecvtIDiDu11__mbstate_tE6do_outERS0_PKDiS4_RS4_PDuS6_RS6_
libvamp-sdk.so.2:_ZNKSt7codecvtIDiDu11__mbstate_tE9do_lengthERS0_PKDuS4_m
libvamp-sdk.so.2:_ZNKSt7codecvtIDic11__mbstate_tE10do_unshiftERS0_PcS3_RS3_
libvamp-sdk.so.2:_ZNKSt7codecvtIDic11__mbstate_tE11do_encodingEv
libvamp-sdk.so.2:_ZNKSt7codecvtIDic11__mbstate_tE13do_max_lengthEv
libvamp-sdk.so.2:_ZNKSt7codecvtIDic11__mbstate_tE16do_always_noconvEv
libvamp-sdk.so.2:_ZNKSt7codecvtIDic11__mbstate_tE5do_inERS0_PKcS4_RS4_PDiS6_RS6_
libvamp-sdk.so.2:_ZNKSt7codecvtIDic11__mbstate_tE6do_outERS0_PKDiS4_RS4_PcS6_RS6_
libvamp-sdk.so.2:_ZNKSt7codecvtIDic11__mbstate_tE9do_lengthERS0_PKcS4_m
libvamp-sdk.so.2:_ZNKSt7codecvtIDsDu11__mbstate_tE10do_unshiftERS0_PDuS3_RS3_
libvamp-sdk.so.2:_ZNKSt7codecvtIDsDu11__mbstate_tE11do_encodingEv
libvamp-sdk.so.2:_ZNKSt7codecvtIDsDu11__mbstate_tE13do_max_lengthEv
libvamp-sdk.so.2:_ZNKSt7codecvtIDsDu11__mbstate_tE16do_always_noconvEv
libvamp-sdk.so.2:_ZNKSt7codecvtIDsDu11__mbstate_tE5do_inERS0_PKDuS4_RS4_PDsS6_RS6_
libvamp-sdk.so.2:_ZNKSt7codecvtIDsDu11__mbstate_tE6do_outERS0_PKDsS4_RS4_PDuS6_RS6_
libvamp-sdk.so.2:_ZNKSt7codecvtIDsDu11__mbstate_tE9do_lengthERS0_PKDuS4_m
libvamp-sdk.so.2:_ZNKSt7codecvtIDsc11__mbstate_tE10do_unshiftERS0_PcS3_RS3_
libvamp-sdk.so.2:_ZNKSt7codecvtIDsc11__mbstate_tE11do_encodingEv
libvamp-sdk.so.2:_ZNKSt7codecvtIDsc11__mbstate_tE13do_max_lengthEv
libvamp-sdk.so.2:_ZNKSt7codecvtIDsc11__mbstate_tE16do_always_noconvEv
libvamp-sdk.so.2:_ZNKSt7codecvtIDsc11__mbstate_tE5do_inERS0_PKcS4_RS4_PDsS6_RS6_
libvamp-sdk.so.2:_ZNKSt7codecvtIDsc11__mbstate_tE6do_outERS0_PKDsS4_RS4_PcS6_RS6_
libvamp-sdk.so.2:_ZNKSt7codecvtIDsc11__mbstate_tE9do_lengthERS0_PKcS4_m
libvamp-sdk.so.2:_ZNKSt7codecvtIcc11__mbstate_tE10do_unshiftERS0_PcS3_RS3_
libvamp-sdk.so.2:_ZNKSt7codecvtIcc11__mbstate_tE11do_encodingEv
libvamp-sdk.so.2:_ZNKSt7codecvtIcc11__mbstate_tE13do_max_lengthEv
libvamp-sdk.so.2:_ZNKSt7codecvtIcc11__mbstate_tE16do_always_noconvEv
libvamp-sdk.so.2:_ZNKSt7codecvtIcc11__mbstate_tE5do_inERS0_PKcS4_RS4_PcS6_RS6_
libvamp-sdk.so.2:_ZNKSt7codecvtIcc11__mbstate_tE6do_outERS0_PKcS4_RS4_PcS6_RS6_
libvamp-sdk.so.2:_ZNKSt7codecvtIcc11__mbstate_tE9do_lengthERS0_PKcS4_m
libvamp-sdk.so.2:_ZNKSt7codecvtIwc11__mbstate_tE10do_unshiftERS0_PcS3_RS3_
libvamp-sdk.so.2:_ZNKSt7codecvtIwc11__mbstate_tE11do_encodingEv
libvamp-sdk.so.2:_ZNKSt7codecvtIwc11__mbstate_tE13do_max_lengthEv
libvamp-sdk.so.2:_ZNKSt7codecvtIwc11__mbstate_tE16do_always_noconvEv
libvamp-sdk.so.2:_ZNKSt7codecvtIwc11__mbstate_tE5do_inERS0_PKcS4_RS4_PwS6_RS6_
libvamp-sdk.so.2:_ZNKSt7codecvtIwc11__mbstate_tE6do_outERS0_PKwS4_RS4_PcS6_RS6_
libvamp-sdk.so.2:_ZNKSt7codecvtIwc11__mbstate_tE9do_lengthERS0_PKcS4_m
libvamp-sdk.so.2:_ZNKSt7collateIcE10_M_compareEPKcS2_
libvamp-sdk.so.2:_ZNKSt7collateIcE12_M_transformEPcPKcm
libvamp-sdk.so.2:_ZNKSt7collateIwE10_M_compareEPKwS2_
libvamp-sdk.so.2:_ZNKSt7collateIwE12_M_transformEPwPKwm
libvamp-sdk.so.2:_ZNKSt8Catalogs6_M_getEi
libvamp-sdk.so.2:_ZNKSt8bad_cast4whatEv
libvamp-sdk.so.2:_ZNKSt8ios_base7failure4whatEv
libvamp-sdk.so.2:_ZNKSt8ios_base7failureB5cxx114whatEv
libvamp-sdk.so.2:_ZNKSt8messagesIcE6do_getEiiiRKSs
libvamp-sdk.so.2:_ZNKSt8messagesIcE7do_openERKSsRKSt6locale
libvamp-sdk.so.2:_ZNKSt8messagesIcE8do_closeEi
libvamp-sdk.so.2:_ZNKSt8messagesIwE6do_getEiiiRKSbIwSt11char_traitsIwESaIwEE
libvamp-sdk.so.2:_ZNKSt8messagesIwE7do_openERKSsRKSt6locale
libvamp-sdk.so.2:_ZNKSt8messagesIwE8do_closeEi
libvamp-sdk.so.2:_ZNKSt9bad_alloc4whatEv
libvamp-sdk.so.2:_ZNKSt9exception4whatEv
libvamp-sdk.so.2:_ZNKSt9type_info10__do_catchEPKS_PPvj
libvamp-sdk.so.2:_ZNKSt9type_info11__do_upcastEPKN10__cxxabiv117__class_type_infoEPPv
libvamp-sdk.so.2:_ZNKSt9type_info14__is_pointer_pEv
libvamp-sdk.so.2:_ZNKSt9type_info15__is_function_pEv
libvamp-sdk.so.2:_ZNSi6ignoreEl
libvamp-sdk.so.2:_ZNSi6ignoreEli
libvamp-sdk.so.2:_ZNSi7getlineEPclc
libvamp-sdk.so.2:_ZNSt10__num_base15_S_format_floatERKSt8ios_basePcc
libvamp-sdk.so.2:_ZNSt10bad_typeidD0Ev
libvamp-sdk.so.2:_ZNSt10bad_typeidD1Ev
libvamp-sdk.so.2:_ZNSt10bad_typeidD2Ev
libvamp-sdk.so.2:_ZNSt10money_base20_S_construct_patternEccc
libvamp-sdk.so.2:_ZNSt10moneypunctIcLb0EE24_M_initialize_moneypunctEP15__locale_structPKc
libvamp-sdk.so.2:_ZNSt10moneypunctIcLb0EED0Ev
libvamp-sdk.so.2:_ZNSt10moneypunctIcLb0EED1Ev
libvamp-sdk.so.2:_ZNSt10moneypunctIcLb0EED2Ev
libvamp-sdk.so.2:_ZNSt10moneypunctIcLb1EE24_M_initialize_moneypunctEP15__locale_structPKc
libvamp-sdk.so.2:_ZNSt10moneypunctIcLb1EED0Ev
libvamp-sdk.so.2:_ZNSt10moneypunctIcLb1EED1Ev
libvamp-sdk.so.2:_ZNSt10moneypunctIcLb1EED2Ev
libvamp-sdk.so.2:_ZNSt10moneypunctIwLb0EE24_M_initialize_moneypunctEP15__locale_structPKc
libvamp-sdk.so.2:_ZNSt10moneypunctIwLb0EED0Ev
libvamp-sdk.so.2:_ZNSt10moneypunctIwLb0EED1Ev
libvamp-sdk.so.2:_ZNSt10moneypunctIwLb0EED2Ev
libvamp-sdk.so.2:_ZNSt10moneypunctIwLb1EE24_M_initialize_moneypunctEP15__locale_structPKc
libvamp-sdk.so.2:_ZNSt10moneypunctIwLb1EED0Ev
libvamp-sdk.so.2:_ZNSt10moneypunctIwLb1EED1Ev
libvamp-sdk.so.2:_ZNSt10moneypunctIwLb1EED2Ev
libvamp-sdk.so.2:_ZNSt11__timepunctIcE23_M_initialize_timepunctEP15__locale_struct
libvamp-sdk.so.2:_ZNSt11__timepunctIwE23_M_initialize_timepunctEP15__locale_struct
libvamp-sdk.so.2:_ZNSt11logic_errorC1EOS_
libvamp-sdk.so.2:_ZNSt11logic_errorC1EPKc
libvamp-sdk.so.2:_ZNSt11logic_errorC1ERKNSt7__cxx1112basic_stringIcSt11char_traitsIcESaIcEEE
libvamp-sdk.so.2:_ZNSt11logic_errorC1ERKS_
libvamp-sdk.so.2:_ZNSt11logic_errorC1ERKSs
libvamp-sdk.so.2:_ZNSt11logic_errorC2EOS_
libvamp-sdk.so.2:_ZNSt11logic_errorC2EPKc
libvamp-sdk.so.2:_ZNSt11logic_errorC2ERKNSt7__cxx1112basic_stringIcSt11char_traitsIcESaIcEEE
libvamp-sdk.so.2:_ZNSt11logic_errorC2ERKS_
libvamp-sdk.so.2:_ZNSt11logic_errorC2ERKSs
libvamp-sdk.so.2:_ZNSt11logic_errorD0Ev
libvamp-sdk.so.2:_ZNSt11logic_errorD1Ev
libvamp-sdk.so.2:_ZNSt11logic_errorD2Ev
libvamp-sdk.so.2:_ZNSt11logic_erroraSEOS_
libvamp-sdk.so.2:_ZNSt11logic_erroraSERKS_
libvamp-sdk.so.2:_ZNSt11range_errorC1EPKc
libvamp-sdk.so.2:_ZNSt11range_errorC1ERKNSt7__cxx1112basic_stringIcSt11char_traitsIcESaIcEEE
libvamp-sdk.so.2:_ZNSt11range_errorC1ERKSs
libvamp-sdk.so.2:_ZNSt11range_errorC2EPKc
libvamp-sdk.so.2:_ZNSt11range_errorC2ERKNSt7__cxx1112basic_stringIcSt11char_traitsIcESaIcEEE
libvamp-sdk.so.2:_ZNSt11range_errorC2ERKSs
libvamp-sdk.so.2:_ZNSt11range_errorD0Ev
libvamp-sdk.so.2:_ZNSt11range_errorD1Ev
libvamp-sdk.so.2:_ZNSt11range_errorD2Ev
libvamp-sdk.so.2:_ZNSt12__basic_fileIcE2fdEv
libvamp-sdk.so.2:_ZNSt12__basic_fileIcE4fileEv
libvamp-sdk.so.2:_ZNSt12__basic_fileIcE4openEPKcSt13_Ios_Openmodei
libvamp-sdk.so.2:_ZNSt12__basic_fileIcE4syncEv
libvamp-sdk.so.2:_ZNSt12__basic_fileIcE5closeEv
libvamp-sdk.so.2:_ZNSt12__basic_fileIcE6xsgetnEPcl
libvamp-sdk.so.2:_ZNSt12__basic_fileIcE6xsputnEPKcl
libvamp-sdk.so.2:_ZNSt12__basic_fileIcE7seekoffElSt12_Ios_Seekdir
libvamp-sdk.so.2:_ZNSt12__basic_fileIcE8sys_openEP8_IO_FILESt13_Ios_Openmode
libvamp-sdk.so.2:_ZNSt12__basic_fileIcE8sys_openEiSt13_Ios_Openmode
libvamp-sdk.so.2:_ZNSt12__basic_fileIcE8xsputn_2EPKclS2_l
libvamp-sdk.so.2:_ZNSt12__basic_fileIcE9showmanycEv
libvamp-sdk.so.2:_ZNSt12__basic_fileIcEC1EP15pthread_mutex_t
libvamp-sdk.so.2:_ZNSt12__basic_fileIcEC2EP15pthread_mutex_t
libvamp-sdk.so.2:_ZNSt12__basic_fileIcED1Ev
libvamp-sdk.so.2:_ZNSt12__basic_fileIcED2Ev
libvamp-sdk.so.2:_ZNSt12__cow_stringC1EOS_
libvamp-sdk.so.2:_ZNSt12__cow_stringC1EPKcm
libvamp-sdk.so.2:_ZNSt12__cow_stringC1ERKNSt7__cxx1112basic_stringIcSt11char_traitsIcESaIcEEE
libvamp-sdk.so.2:_ZNSt12__cow_stringC1ERKS_
libvamp-sdk.so.2:_ZNSt12__cow_stringC1ERKSs
libvamp-sdk.so.2:_ZNSt12__cow_stringC1Ev
libvamp-sdk.so.2:_ZNSt12__cow_stringC2EOS_
libvamp-sdk.so.2:_ZNSt12__cow_stringC2EPKcm
libvamp-sdk.so.2:_ZNSt12__cow_stringC2ERKNSt7__cxx1112basic_stringIcSt11char_traitsIcESaIcEEE
libvamp-sdk.so.2:_ZNSt12__cow_stringC2ERKS_
libvamp-sdk.so.2:_ZNSt12__cow_stringC2ERKSs
libvamp-sdk.so.2:_ZNSt12__cow_stringC2Ev
libvamp-sdk.so.2:_ZNSt12__cow_stringD1Ev
libvamp-sdk.so.2:_ZNSt12__cow_stringD2Ev
libvamp-sdk.so.2:_ZNSt12__cow_stringaSEOS_
libvamp-sdk.so.2:_ZNSt12__cow_stringaSERKS_
libvamp-sdk.so.2:_ZNSt12__sso_stringC1EOS_
libvamp-sdk.so.2:_ZNSt12__sso_stringC1EPKcm
libvamp-sdk.so.2:_ZNSt12__sso_stringC1ERKNSt7__cxx1112basic_stringIcSt11char_traitsIcESaIcEEE
libvamp-sdk.so.2:_ZNSt12__sso_stringC1ERKS_
libvamp-sdk.so.2:_ZNSt12__sso_stringC1ERKSs
libvamp-sdk.so.2:_ZNSt12__sso_stringC1Ev
libvamp-sdk.so.2:_ZNSt12__sso_stringC2EOS_
libvamp-sdk.so.2:_ZNSt12__sso_stringC2EPKcm
libvamp-sdk.so.2:_ZNSt12__sso_stringC2ERKNSt7__cxx1112basic_stringIcSt11char_traitsIcESaIcEEE
libvamp-sdk.so.2:_ZNSt12__sso_stringC2ERKS_
libvamp-sdk.so.2:_ZNSt12__sso_stringC2ERKSs
libvamp-sdk.so.2:_ZNSt12__sso_stringC2Ev
libvamp-sdk.so.2:_ZNSt12__sso_stringD1Ev
libvamp-sdk.so.2:_ZNSt12__sso_stringD2Ev
libvamp-sdk.so.2:_ZNSt12__sso_stringaSEOS_
libvamp-sdk.so.2:_ZNSt12__sso_stringaSERKS_
libvamp-sdk.so.2:_ZNSt12ctype_bynameIcEC1EPKcm
libvamp-sdk.so.2:_ZNSt12ctype_bynameIcEC1ERKNSt7__cxx1112basic_stringIcSt11char_traitsIcESaIcEEEm
libvamp-sdk.so.2:_ZNSt12ctype_bynameIcEC1ERKSsm
libvamp-sdk.so.2:_ZNSt12ctype_bynameIcEC2EPKcm
libvamp-sdk.so.2:_ZNSt12ctype_bynameIcEC2ERKNSt7__cxx1112basic_stringIcSt11char_traitsIcESaIcEEEm
libvamp-sdk.so.2:_ZNSt12ctype_bynameIcEC2ERKSsm
libvamp-sdk.so.2:_ZNSt12ctype_bynameIcED0Ev
libvamp-sdk.so.2:_ZNSt12ctype_bynameIcED1Ev
libvamp-sdk.so.2:_ZNSt12ctype_bynameIcED2Ev
libvamp-sdk.so.2:_ZNSt12ctype_bynameIwEC1EPKcm
libvamp-sdk.so.2:_ZNSt12ctype_bynameIwEC1ERKNSt7__cxx1112basic_stringIcSt11char_traitsIcESaIcEEEm
libvamp-sdk.so.2:_ZNSt12ctype_bynameIwEC1ERKSsm
libvamp-sdk.so.2:_ZNSt12ctype_bynameIwEC2EPKcm
libvamp-sdk.so.2:_ZNSt12ctype_bynameIwEC2ERKNSt7__cxx1112basic_stringIcSt11char_traitsIcESaIcEEEm
libvamp-sdk.so.2:_ZNSt12ctype_bynameIwEC2ERKSsm
libvamp-sdk.so.2:_ZNSt12ctype_bynameIwED0Ev
libvamp-sdk.so.2:_ZNSt12ctype_bynameIwED1Ev
libvamp-sdk.so.2:_ZNSt12ctype_bynameIwED2Ev
libvamp-sdk.so.2:_ZNSt12domain_errorC1EPKc
libvamp-sdk.so.2:_ZNSt12domain_errorC1ERKNSt7__cxx1112basic_stringIcSt11char_traitsIcESaIcEEE
libvamp-sdk.so.2:_ZNSt12domain_errorC1ERKSs
libvamp-sdk.so.2:_ZNSt12domain_errorC2EPKc
libvamp-sdk.so.2:_ZNSt12domain_errorC2ERKNSt7__cxx1112basic_stringIcSt11char_traitsIcESaIcEEE
libvamp-sdk.so.2:_ZNSt12domain_errorC2ERKSs
libvamp-sdk.so.2:_ZNSt12domain_errorD0Ev
libvamp-sdk.so.2:_ZNSt12domain_errorD1Ev
libvamp-sdk.so.2:_ZNSt12domain_errorD2Ev
libvamp-sdk.so.2:_ZNSt12length_errorC1EPKc
libvamp-sdk.so.2:_ZNSt12length_errorC1ERKNSt7__cxx1112basic_stringIcSt11char_traitsIcESaIcEEE
libvamp-sdk.so.2:_ZNSt12length_errorC1ERKSs
libvamp-sdk.so.2:_ZNSt12length_errorC2EPKc
libvamp-sdk.so.2:_ZNSt12length_errorC2ERKNSt7__cxx1112basic_stringIcSt11char_traitsIcESaIcEEE
libvamp-sdk.so.2:_ZNSt12length_errorC2ERKSs
libvamp-sdk.so.2:_ZNSt12length_errorD0Ev
libvamp-sdk.so.2:_ZNSt12length_errorD1Ev
libvamp-sdk.so.2:_ZNSt12length_errorD2Ev
libvamp-sdk.so.2:_ZNSt12out_of_rangeC1EPKc
libvamp-sdk.so.2:_ZNSt12out_of_rangeC1ERKNSt7__cxx1112basic_stringIcSt11char_traitsIcESaIcEEE
libvamp-sdk.so.2:_ZNSt12out_of_rangeC1ERKSs
libvamp-sdk.so.2:_ZNSt12out_of_rangeC2EPKc
libvamp-sdk.so.2:_ZNSt12out_of_rangeC2ERKNSt7__cxx1112basic_stringIcSt11char_traitsIcESaIcEEE
libvamp-sdk.so.2:_ZNSt12out_of_rangeC2ERKSs
libvamp-sdk.so.2:_ZNSt12out_of_rangeD0Ev
libvamp-sdk.so.2:_ZNSt12out_of_rangeD1Ev
libvamp-sdk.so.2:_ZNSt12out_of_rangeD2Ev
libvamp-sdk.so.2:_ZNSt12system_errorD0Ev
libvamp-sdk.so.2:_ZNSt12system_errorD1Ev
libvamp-sdk.so.2:_ZNSt12system_errorD2Ev
libvamp-sdk.so.2:_ZNSt13bad_exceptionD0Ev
libvamp-sdk.so.2:_ZNSt13bad_exceptionD1Ev
libvamp-sdk.so.2:_ZNSt13bad_exceptionD2Ev
libvamp-sdk.so.2:_ZNSt13basic_istreamIwSt11char_traitsIwEE6ignoreEl
libvamp-sdk.so.2:_ZNSt13basic_istreamIwSt11char_traitsIwEE6ignoreElj
libvamp-sdk.so.2:_ZNSt13basic_istreamIwSt11char_traitsIwEE7getlineEPwlw
libvamp-sdk.so.2:_ZNSt13random_device14_M_init_pretr1ERKNSt7__cxx1112basic_stringIcSt11char_traitsIcESaIcEEE
libvamp-sdk.so.2:_ZNSt13random_device14_M_init_pretr1ERKSs
libvamp-sdk.so.2:_ZNSt13random_device16_M_getval_pretr1Ev
libvamp-sdk.so.2:_ZNSt13random_device7_M_finiEv
libvamp-sdk.so.2:_ZNSt13random_device7_M_initEPKcm
libvamp-sdk.so.2:_ZNSt13random_device7_M_initERKNSt7__cxx1112basic_stringIcSt11char_traitsIcESaIcEEE
libvamp-sdk.so.2:_ZNSt13random_device7_M_initERKSs
libvamp-sdk.so.2:_ZNSt13random_device9_M_getvalEv
libvamp-sdk.so.2:_ZNSt13runtime_errorC1EOS_
libvamp-sdk.so.2:_ZNSt13runtime_errorC1EPKc
libvamp-sdk.so.2:_ZNSt13runtime_errorC1ERKNSt7__cxx1112basic_stringIcSt11char_traitsIcESaIcEEE
libvamp-sdk.so.2:_ZNSt13runtime_errorC1ERKS_
libvamp-sdk.so.2:_ZNSt13runtime_errorC1ERKSs
libvamp-sdk.so.2:_ZNSt13runtime_errorC2EOS_
libvamp-sdk.so.2:_ZNSt13runtime_errorC2EPKc
libvamp-sdk.so.2:_ZNSt13runtime_errorC2ERKNSt7__cxx1112basic_stringIcSt11char_traitsIcESaIcEEE
libvamp-sdk.so.2:_ZNSt13runtime_errorC2ERKS_
libvamp-sdk.so.2:_ZNSt13runtime_errorC2ERKSs
libvamp-sdk.so.2:_ZNSt13runtime_errorD0Ev
libvamp-sdk.so.2:_ZNSt13runtime_errorD1Ev
libvamp-sdk.so.2:_ZNSt13runtime_errorD2Ev
libvamp-sdk.so.2:_ZNSt13runtime_erroraSEOS_
libvamp-sdk.so.2:_ZNSt13runtime_erroraSERKS_
libvamp-sdk.so.2:_ZNSt14overflow_errorC1EPKc
libvamp-sdk.so.2:_ZNSt14overflow_errorC1ERKNSt7__cxx1112basic_stringIcSt11char_traitsIcESaIcEEE
libvamp-sdk.so.2:_ZNSt14overflow_errorC1ERKSs
libvamp-sdk.so.2:_ZNSt14overflow_errorC2EPKc
libvamp-sdk.so.2:_ZNSt14overflow_errorC2ERKNSt7__cxx1112basic_stringIcSt11char_traitsIcESaIcEEE
libvamp-sdk.so.2:_ZNSt14overflow_errorC2ERKSs
libvamp-sdk.so.2:_ZNSt14overflow_errorD0Ev
libvamp-sdk.so.2:_ZNSt14overflow_errorD1Ev
libvamp-sdk.so.2:_ZNSt14overflow_errorD2Ev
libvamp-sdk.so.2:_ZNSt15underflow_errorC1EPKc
libvamp-sdk.so.2:_ZNSt15underflow_errorC1ERKNSt7__cxx1112basic_stringIcSt11char_traitsIcESaIcEEE
libvamp-sdk.so.2:_ZNSt15underflow_errorC1ERKSs
libvamp-sdk.so.2:_ZNSt15underflow_errorC2EPKc
libvamp-sdk.so.2:_ZNSt15underflow_errorC2ERKNSt7__cxx1112basic_stringIcSt11char_traitsIcESaIcEEE
libvamp-sdk.so.2:_ZNSt15underflow_errorC2ERKSs
libvamp-sdk.so.2:_ZNSt15underflow_errorD0Ev
libvamp-sdk.so.2:_ZNSt15underflow_errorD1Ev
libvamp-sdk.so.2:_ZNSt15underflow_errorD2Ev
libvamp-sdk.so.2:_ZNSt16invalid_argumentC1EPKc
libvamp-sdk.so.2:_ZNSt16invalid_argumentC1ERKNSt7__cxx1112basic_stringIcSt11char_traitsIcESaIcEEE
libvamp-sdk.so.2:_ZNSt16invalid_argumentC1ERKSs
libvamp-sdk.so.2:_ZNSt16invalid_argumentC2EPKc
libvamp-sdk.so.2:_ZNSt16invalid_argumentC2ERKNSt7__cxx1112basic_stringIcSt11char_traitsIcESaIcEEE
libvamp-sdk.so.2:_ZNSt16invalid_argumentC2ERKSs
libvamp-sdk.so.2:_ZNSt16invalid_argumentD0Ev
libvamp-sdk.so.2:_ZNSt16invalid_argumentD1Ev
libvamp-sdk.so.2:_ZNSt16invalid_argumentD2Ev
libvamp-sdk.so.2:_ZNSt19__codecvt_utf8_baseIDiED0Ev
libvamp-sdk.so.2:_ZNSt19__codecvt_utf8_baseIDiED1Ev
libvamp-sdk.so.2:_ZNSt19__codecvt_utf8_baseIDiED2Ev
libvamp-sdk.so.2:_ZNSt19__codecvt_utf8_baseIDsED0Ev
libvamp-sdk.so.2:_ZNSt19__codecvt_utf8_baseIDsED1Ev
libvamp-sdk.so.2:_ZNSt19__codecvt_utf8_baseIDsED2Ev
libvamp-sdk.so.2:_ZNSt19__codecvt_utf8_baseIwED0Ev
libvamp-sdk.so.2:_ZNSt19__codecvt_utf8_baseIwED1Ev
libvamp-sdk.so.2:_ZNSt19__codecvt_utf8_baseIwED2Ev
libvamp-sdk.so.2:_ZNSt19__iosfail_type_infoD0Ev
libvamp-sdk.so.2:_ZNSt19__iosfail_type_infoD1Ev
libvamp-sdk.so.2:_ZNSt19__iosfail_type_infoD2Ev
libvamp-sdk.so.2:_ZNSt20__codecvt_utf16_baseIDiED0Ev
libvamp-sdk.so.2:_ZNSt20__codecvt_utf16_baseIDiED1Ev
libvamp-sdk.so.2:_ZNSt20__codecvt_utf16_baseIDiED2Ev
libvamp-sdk.so.2:_ZNSt20__codecvt_utf16_baseIDsED0Ev
libvamp-sdk.so.2:_ZNSt20__codecvt_utf16_baseIDsED1Ev
libvamp-sdk.so.2:_ZNSt20__codecvt_utf16_baseIDsED2Ev
libvamp-sdk.so.2:_ZNSt20__codecvt_utf16_baseIwED0Ev
libvamp-sdk.so.2:_ZNSt20__codecvt_utf16_baseIwED1Ev
libvamp-sdk.so.2:_ZNSt20__codecvt_utf16_baseIwED2Ev
libvamp-sdk.so.2:_ZNSt20bad_array_new_lengthD0Ev
libvamp-sdk.so.2:_ZNSt20bad_array_new_lengthD1Ev
libvamp-sdk.so.2:_ZNSt20bad_array_new_lengthD2Ev
libvamp-sdk.so.2:_ZNSt25__codecvt_utf8_utf16_baseIDiED0Ev
libvamp-sdk.so.2:_ZNSt25__codecvt_utf8_utf16_baseIDiED1Ev
libvamp-sdk.so.2:_ZNSt25__codecvt_utf8_utf16_baseIDiED2Ev
libvamp-sdk.so.2:_ZNSt25__codecvt_utf8_utf16_baseIDsED0Ev
libvamp-sdk.so.2:_ZNSt25__codecvt_utf8_utf16_baseIDsED1Ev
libvamp-sdk.so.2:_ZNSt25__codecvt_utf8_utf16_baseIDsED2Ev
libvamp-sdk.so.2:_ZNSt25__codecvt_utf8_utf16_baseIwED0Ev
libvamp-sdk.so.2:_ZNSt25__codecvt_utf8_utf16_baseIwED1Ev
libvamp-sdk.so.2:_ZNSt25__codecvt_utf8_utf16_baseIwED2Ev
libvamp-sdk.so.2:_ZNSt3_V214error_categoryD0Ev
libvamp-sdk.so.2:_ZNSt3_V214error_categoryD1Ev
libvamp-sdk.so.2:_ZNSt3_V214error_categoryD2Ev
libvamp-sdk.so.2:_ZNSt3_V215system_categoryEv
libvamp-sdk.so.2:_ZNSt3_V216generic_categoryEv
libvamp-sdk.so.2:_ZNSt5ctypeIcE13classic_tableEv
libvamp-sdk.so.2:_ZNSt5ctypeIcEC1EP15__locale_structPKtbm
libvamp-sdk.so.2:_ZNSt5ctypeIcEC1EPKtbm
libvamp-sdk.so.2:_ZNSt5ctypeIcEC2EP15__locale_structPKtbm
libvamp-sdk.so.2:_ZNSt5ctypeIcEC2EPKtbm
libvamp-sdk.so.2:_ZNSt5ctypeIcED0Ev
libvamp-sdk.so.2:_ZNSt5ctypeIcED1Ev
libvamp-sdk.so.2:_ZNSt5ctypeIcED2Ev
libvamp-sdk.so.2:_ZNSt5ctypeIwE19_M_initialize_ctypeEv
libvamp-sdk.so.2:_ZNSt5ctypeIwEC1EP15__locale_structm
libvamp-sdk.so.2:_ZNSt5ctypeIwEC1Em
libvamp-sdk.so.2:_ZNSt5ctypeIwEC2EP15__locale_structm
libvamp-sdk.so.2:_ZNSt5ctypeIwEC2Em
libvamp-sdk.so.2:_ZNSt5ctypeIwED0Ev
libvamp-sdk.so.2:_ZNSt5ctypeIwED1Ev
libvamp-sdk.so.2:_ZNSt5ctypeIwED2Ev
libvamp-sdk.so.2:_ZNSt6locale13_S_initializeEv
libvamp-sdk.so.2:_ZNSt6locale18_S_initialize_onceEv
libvamp-sdk.so.2:_ZNSt6locale21_S_normalize_categoryEi
libvamp-sdk.so.2:_ZNSt6locale5_Impl13_M_init_extraEPPNS_5facetE
libvamp-sdk.so.2:_ZNSt6locale5_Impl13_M_init_extraEPvS1_PKcS3_
libvamp-sdk.so.2:_ZNSt6locale5_Impl16_M_install_cacheEPKNS_5facetEm
libvamp-sdk.so.2:_ZNSt6locale5_Impl16_M_install_facetEPKNS_2idEPKNS_5facetE
libvamp-sdk.so.2:_ZNSt6locale5_Impl16_M_replace_facetEPKS0_PKNS_2idE
libvamp-sdk.so.2:_ZNSt6locale5_Impl19_M_replace_categoryEPKS0_PKPKNS_2idE
libvamp-sdk.so.2:_ZNSt6locale5_ImplC1ERKS0_m
libvamp-sdk.so.2:_ZNSt6locale5_ImplC1Em
libvamp-sdk.so.2:_ZNSt6locale5_ImplC2ERKS0_m
libvamp-sdk.so.2:_ZNSt6locale5_ImplC2Em
libvamp-sdk.so.2:_ZNSt6locale5_ImplD1Ev
libvamp-sdk.so.2:_ZNSt6locale5_ImplD2Ev
libvamp-sdk.so.2:_ZNSt6locale5facet13_S_get_c_nameEv
libvamp-sdk.so.2:_ZNSt6locale5facet15_S_get_c_localeEv
libvamp-sdk.so.2:_ZNSt6locale5facet17_S_clone_c_localeERP15__locale_struct
libvamp-sdk.so.2:_ZNSt6locale5facet18_S_create_c_localeERP15__locale_structPKcS2_
libvamp-sdk.so.2:_ZNSt6locale5facet18_S_initialize_onceEv
libvamp-sdk.so.2:_ZNSt6locale5facet19_S_destroy_c_localeERP15__locale_struct
libvamp-sdk.so.2:_ZNSt6locale5facet20_S_lc_ctype_c_localeEP15__locale_structPKc
libvamp-sdk.so.2:_ZNSt6locale5facetD0Ev
libvamp-sdk.so.2:_ZNSt6locale5facetD1Ev
libvamp-sdk.so.2:_ZNSt6locale5facetD2Ev
libvamp-sdk.so.2:_ZNSt6locale6globalERKS_
libvamp-sdk.so.2:_ZNSt6locale7classicEv
libvamp-sdk.so.2:_ZNSt6localeC1EPNS_5_ImplE
libvamp-sdk.so.2:_ZNSt6localeC1ERKS_
libvamp-sdk.so.2:_ZNSt6localeC1Ev
libvamp-sdk.so.2:_ZNSt6localeC2EPNS_5_ImplE
libvamp-sdk.so.2:_ZNSt6localeC2ERKS_
libvamp-sdk.so.2:_ZNSt6localeC2Ev
libvamp-sdk.so.2:_ZNSt6localeD1Ev
libvamp-sdk.so.2:_ZNSt6localeD2Ev
libvamp-sdk.so.2:_ZNSt6localeaSERKS_
libvamp-sdk.so.2:_ZNSt7__cxx1110moneypunctIcLb0EE24_M_initialize_moneypunctEP15__locale_structPKc
libvamp-sdk.so.2:_ZNSt7__cxx1110moneypunctIcLb0EED0Ev
libvamp-sdk.so.2:_ZNSt7__cxx1110moneypunctIcLb0EED1Ev
libvamp-sdk.so.2:_ZNSt7__cxx1110moneypunctIcLb0EED2Ev
libvamp-sdk.so.2:_ZNSt7__cxx1110moneypunctIcLb1EE24_M_initialize_moneypunctEP15__locale_structPKc
libvamp-sdk.so.2:_ZNSt7__cxx1110moneypunctIcLb1EED0Ev
libvamp-sdk.so.2:_ZNSt7__cxx1110moneypunctIcLb1EED1Ev
libvamp-sdk.so.2:_ZNSt7__cxx1110moneypunctIcLb1EED2Ev
libvamp-sdk.so.2:_ZNSt7__cxx1110moneypunctIwLb0EE24_M_initialize_moneypunctEP15__locale_structPKc
libvamp-sdk.so.2:_ZNSt7__cxx1110moneypunctIwLb0EED0Ev
libvamp-sdk.so.2:_ZNSt7__cxx1110moneypunctIwLb0EED1Ev
libvamp-sdk.so.2:_ZNSt7__cxx1110moneypunctIwLb0EED2Ev
libvamp-sdk.so.2:_ZNSt7__cxx1110moneypunctIwLb1EE24_M_initialize_moneypunctEP15__locale_structPKc
libvamp-sdk.so.2:_ZNSt7__cxx1110moneypunctIwLb1EED0Ev
libvamp-sdk.so.2:_ZNSt7__cxx1110moneypunctIwLb1EED1Ev
libvamp-sdk.so.2:_ZNSt7__cxx1110moneypunctIwLb1EED2Ev
libvamp-sdk.so.2:_ZNSt7__cxx1112basic_stringIcSt11char_traitsIcESaIcEE12_M_constructIPKcEEvT_S8_St20forward_iterator_tag
libvamp-sdk.so.2:_ZNSt7__cxx1112basic_stringIcSt11char_traitsIcESaIcEE12_M_constructIPcEEvT_S7_St20forward_iterator_tag
libvamp-sdk.so.2:_ZNSt7__cxx118numpunctIcE22_M_initialize_numpunctEP15__locale_struct
libvamp-sdk.so.2:_ZNSt7__cxx118numpunctIcED0Ev
libvamp-sdk.so.2:_ZNSt7__cxx118numpunctIcED1Ev
libvamp-sdk.so.2:_ZNSt7__cxx118numpunctIcED2Ev
libvamp-sdk.so.2:_ZNSt7__cxx118numpunctIwE22_M_initialize_numpunctEP15__locale_struct
libvamp-sdk.so.2:_ZNSt7__cxx118numpunctIwED0Ev
libvamp-sdk.so.2:_ZNSt7__cxx118numpunctIwED1Ev
libvamp-sdk.so.2:_ZNSt7__cxx118numpunctIwED2Ev
libvamp-sdk.so.2:_ZNSt7codecvtIDiDu11__mbstate_tED0Ev
libvamp-sdk.so.2:_ZNSt7codecvtIDiDu11__mbstate_tED1Ev
libvamp-sdk.so.2:_ZNSt7codecvtIDiDu11__mbstate_tED2Ev
libvamp-sdk.so.2:_ZNSt7codecvtIDic11__mbstate_tED0Ev
libvamp-sdk.so.2:_ZNSt7codecvtIDic11__mbstate_tED1Ev
libvamp-sdk.so.2:_ZNSt7codecvtIDic11__mbstate_tED2Ev
libvamp-sdk.so.2:_ZNSt7codecvtIDsDu11__mbstate_tED0Ev
libvamp-sdk.so.2:_ZNSt7codecvtIDsDu11__mbstate_tED1Ev
libvamp-sdk.so.2:_ZNSt7codecvtIDsDu11__mbstate_tED2Ev
libvamp-sdk.so.2:_ZNSt7codecvtIDsc11__mbstate_tED0Ev
libvamp-sdk.so.2:_ZNSt7codecvtIDsc11__mbstate_tED1Ev
libvamp-sdk.so.2:_ZNSt7codecvtIDsc11__mbstate_tED2Ev
libvamp-sdk.so.2:_ZNSt7codecvtIcc11__mbstate_tEC1EP15__locale_structm
libvamp-sdk.so.2:_ZNSt7codecvtIcc11__mbstate_tEC1Em
libvamp-sdk.so.2:_ZNSt7codecvtIcc11__mbstate_tEC2EP15__locale_structm
libvamp-sdk.so.2:_ZNSt7codecvtIcc11__mbstate_tEC2Em
libvamp-sdk.so.2:_ZNSt7codecvtIcc11__mbstate_tED0Ev
libvamp-sdk.so.2:_ZNSt7codecvtIcc11__mbstate_tED1Ev
libvamp-sdk.so.2:_ZNSt7codecvtIcc11__mbstate_tED2Ev
libvamp-sdk.so.2:_ZNSt7codecvtIwc11__mbstate_tEC1EP15__locale_structm
libvamp-sdk.so.2:_ZNSt7codecvtIwc11__mbstate_tEC1Em
libvamp-sdk.so.2:_ZNSt7codecvtIwc11__mbstate_tEC2EP15__locale_structm
libvamp-sdk.so.2:_ZNSt7codecvtIwc11__mbstate_tEC2Em
libvamp-sdk.so.2:_ZNSt7codecvtIwc11__mbstate_tED0Ev
libvamp-sdk.so.2:_ZNSt7codecvtIwc11__mbstate_tED1Ev
libvamp-sdk.so.2:_ZNSt7codecvtIwc11__mbstate_tED2Ev
libvamp-sdk.so.2:_ZNSt8Catalogs6_M_addEPKcSt6locale
libvamp-sdk.so.2:_ZNSt8Catalogs8_M_eraseEi
libvamp-sdk.so.2:_ZNSt8CatalogsD1Ev
libvamp-sdk.so.2:_ZNSt8CatalogsD2Ev
libvamp-sdk.so.2:_ZNSt8bad_castD0Ev
libvamp-sdk.so.2:_ZNSt8bad_castD1Ev
libvamp-sdk.so.2:_ZNSt8bad_castD2Ev
libvamp-sdk.so.2:_ZNSt8ios_base13_M_grow_wordsEib
libvamp-sdk.so.2:_ZNSt8ios_base15sync_with_stdioEb
libvamp-sdk.so.2:_ZNSt8ios_base17_M_call_callbacksENS_5eventE
libvamp-sdk.so.2:_ZNSt8ios_base17register_callbackEPFvNS_5eventERS_iEi
libvamp-sdk.so.2:_ZNSt8ios_base20_M_dispose_callbacksEv
libvamp-sdk.so.2:_ZNSt8ios_base4InitC1Ev
libvamp-sdk.so.2:_ZNSt8ios_base4InitC2Ev
libvamp-sdk.so.2:_ZNSt8ios_base4InitD1Ev
libvamp-sdk.so.2:_ZNSt8ios_base4InitD2Ev
libvamp-sdk.so.2:_ZNSt8ios_base5imbueERKSt6locale
libvamp-sdk.so.2:_ZNSt8ios_base6xallocEv
libvamp-sdk.so.2:_ZNSt8ios_base7_M_initEv
libvamp-sdk.so.2:_ZNSt8ios_base7_M_moveERS_
libvamp-sdk.so.2:_ZNSt8ios_base7_M_swapERS_
libvamp-sdk.so.2:_ZNSt8ios_base7failureB5cxx11C1EPKcRKSt10error_code
libvamp-sdk.so.2:_ZNSt8ios_base7failureB5cxx11C1ERKNSt7__cxx1112basic_stringIcSt11char_traitsIcESaIcEEE
libvamp-sdk.so.2:_ZNSt8ios_base7failureB5cxx11C1ERKNSt7__cxx1112basic_stringIcSt11char_traitsIcESaIcEEERKSt10error_code
libvamp-sdk.so.2:_ZNSt8ios_base7failureB5cxx11C2EPKcRKSt10error_code
libvamp-sdk.so.2:_ZNSt8ios_base7failureB5cxx11C2ERKNSt7__cxx1112basic_stringIcSt11char_traitsIcESaIcEEE
libvamp-sdk.so.2:_ZNSt8ios_base7failureB5cxx11C2ERKNSt7__cxx1112basic_stringIcSt11char_traitsIcESaIcEEERKSt10error_code
libvamp-sdk.so.2:_ZNSt8ios_base7failureB5cxx11D0Ev
libvamp-sdk.so.2:_ZNSt8ios_base7failureB5cxx11D1Ev
libvamp-sdk.so.2:_ZNSt8ios_base7failureB5cxx11D2Ev
libvamp-sdk.so.2:_ZNSt8ios_base7failureC1ERKSs
libvamp-sdk.so.2:_ZNSt8ios_base7failureC2ERKSs
libvamp-sdk.so.2:_ZNSt8ios_base7failureD0Ev
libvamp-sdk.so.2:_ZNSt8ios_base7failureD1Ev
libvamp-sdk.so.2:_ZNSt8ios_base7failureD2Ev
libvamp-sdk.so.2:_ZNSt8ios_baseC1Ev
libvamp-sdk.so.2:_ZNSt8ios_baseC2Ev
libvamp-sdk.so.2:_ZNSt8ios_baseD0Ev
libvamp-sdk.so.2:_ZNSt8ios_baseD1Ev
libvamp-sdk.so.2:_ZNSt8ios_baseD2Ev
libvamp-sdk.so.2:_ZNSt8numpunctIcE22_M_initialize_numpunctEP15__locale_struct
libvamp-sdk.so.2:_ZNSt8numpunctIcED0Ev
libvamp-sdk.so.2:_ZNSt8numpunctIcED1Ev
libvamp-sdk.so.2:_ZNSt8numpunctIcED2Ev
libvamp-sdk.so.2:_ZNSt8numpunctIwE22_M_initialize_numpunctEP15__locale_struct
libvamp-sdk.so.2:_ZNSt8numpunctIwED0Ev
libvamp-sdk.so.2:_ZNSt8numpunctIwED1Ev
libvamp-sdk.so.2:_ZNSt8numpunctIwED2Ev
libvamp-sdk.so.2:_ZNSt9bad_allocD0Ev
libvamp-sdk.so.2:_ZNSt9bad_allocD1Ev
libvamp-sdk.so.2:_ZNSt9bad_allocD2Ev
libvamp-sdk.so.2:_ZNSt9exceptionD0Ev
libvamp-sdk.so.2:_ZNSt9exceptionD1Ev
libvamp-sdk.so.2:_ZNSt9exceptionD2Ev
libvamp-sdk.so.2:_ZNSt9type_infoD0Ev
libvamp-sdk.so.2:_ZNSt9type_infoD1Ev
libvamp-sdk.so.2:_ZNSt9type_infoD2Ev
libvamp-sdk.so.2:_ZSt10unexpectedv
libvamp-sdk.so.2:_ZSt12get_catalogsv
libvamp-sdk.so.2:_ZSt13get_terminatev
libvamp-sdk.so.2:_ZSt13set_terminatePFvvE
libvamp-sdk.so.2:_ZSt14__convert_to_vIdEvPKcRT_RSt12_Ios_IostateRKP15__locale_struct
libvamp-sdk.so.2:_ZSt14__convert_to_vIeEvPKcRT_RSt12_Ios_IostateRKP15__locale_struct
libvamp-sdk.so.2:_ZSt14__convert_to_vIfEvPKcRT_RSt12_Ios_IostateRKP15__locale_struct
libvamp-sdk.so.2:_ZSt14get_unexpectedv
libvamp-sdk.so.2:_ZSt14set_unexpectedPFvvE
libvamp-sdk.so.2:_ZSt15get_new_handlerv
libvamp-sdk.so.2:_ZSt15set_new_handlerPFvvE
libvamp-sdk.so.2:_ZSt16__throw_bad_castv
libvamp-sdk.so.2:_ZSt17__istream_extractRSiPcl
libvamp-sdk.so.2:_ZSt17__throw_bad_allocv
libvamp-sdk.so.2:_ZSt17__verify_groupingPKcmRKNSt7__cxx1112basic_stringIcSt11char_traitsIcESaIcEEE
libvamp-sdk.so.2:_ZSt17__verify_groupingPKcmRKSs
libvamp-sdk.so.2:_ZSt17iostream_categoryv
libvamp-sdk.so.2:_ZSt18_Rb_tree_decrementPKSt18_Rb_tree_node_base
libvamp-sdk.so.2:_ZSt18_Rb_tree_decrementPSt18_Rb_tree_node_base
libvamp-sdk.so.2:_ZSt18_Rb_tree_incrementPKSt18_Rb_tree_node_base
libvamp-sdk.so.2:_ZSt18_Rb_tree_incrementPSt18_Rb_tree_node_base
libvamp-sdk.so.2:_ZSt18__throw_bad_typeidv
libvamp-sdk.so.2:_ZSt18uncaught_exceptionv
libvamp-sdk.so.2:_ZSt19__throw_ios_failurePKc
libvamp-sdk.so.2:_ZSt19__throw_ios_failurePKci
libvamp-sdk.so.2:_ZSt19__throw_logic_errorPKc
libvamp-sdk.so.2:_ZSt19__throw_range_errorPKc
libvamp-sdk.so.2:_ZSt19uncaught_exceptionsv
libvamp-sdk.so.2:_ZSt20_Rb_tree_black_countPKSt18_Rb_tree_node_baseS1_
libvamp-sdk.so.2:_ZSt20_Rb_tree_rotate_leftPSt18_Rb_tree_node_baseRS0_
libvamp-sdk.so.2:_ZSt20__throw_domain_errorPKc
libvamp-sdk.so.2:_ZSt20__throw_length_errorPKc
libvamp-sdk.so.2:_ZSt20__throw_out_of_rangePKc
libvamp-sdk.so.2:_ZSt20__throw_system_errori
libvamp-sdk.so.2:_ZSt21_Rb_tree_rotate_rightPSt18_Rb_tree_node_baseRS0_
libvamp-sdk.so.2:_ZSt21__copy_streambufs_eofIcSt11char_traitsIcEElPSt15basic_streambufIT_T0_ES6_Rb
libvamp-sdk.so.2:_ZSt21__copy_streambufs_eofIwSt11char_traitsIwEElPSt15basic_streambufIT_T0_ES6_Rb
libvamp-sdk.so.2:_ZSt21__destroy_ios_failurePv
libvamp-sdk.so.2:_ZSt21__throw_bad_exceptionv
libvamp-sdk.so.2:_ZSt21__throw_runtime_errorPKc
libvamp-sdk.so.2:_ZSt22__throw_overflow_errorPKc
libvamp-sdk.so.2:_ZSt22__verify_grouping_implPKcmS0_m
libvamp-sdk.so.2:_ZSt23__construct_ios_failurePvPKc
libvamp-sdk.so.2:_ZSt23__throw_underflow_errorPKc
libvamp-sdk.so.2:_ZSt24__is_ios_failure_handlerPKN10__cxxabiv117__class_type_infoE
libvamp-sdk.so.2:_ZSt24__narrow_multibyte_charsPKcP15__locale_struct
libvamp-sdk.so.2:_ZSt24__throw_invalid_argumentPKc
libvamp-sdk.so.2:_ZSt24__throw_out_of_range_fmtPKcz
libvamp-sdk.so.2:_ZSt28_Rb_tree_rebalance_for_erasePSt18_Rb_tree_node_baseRS_
libvamp-sdk.so.2:_ZSt28__throw_bad_array_new_lengthv
libvamp-sdk.so.2:_ZSt29_Rb_tree_insert_and_rebalancebPSt18_Rb_tree_node_baseS0_RS_
libvamp-sdk.so.2:_ZSt9terminatev
libvamp-sdk.so.2:_ZdaPv
libvamp-sdk.so.2:_ZdlPv
libvamp-sdk.so.2:_ZdlPvm
libvamp-sdk.so.2:_Znam
libvamp-sdk.so.2:_ZnamRKSt9nothrow_t
libvamp-sdk.so.2:_Znwm
libvamp-sdk.so.2:__cxa_allocate_dependent_exception
libvamp-sdk.so.2:__cxa_allocate_exception
libvamp-sdk.so.2:__cxa_bad_cast
libvamp-sdk.so.2:__cxa_bad_typeid
libvamp-sdk.so.2:__cxa_begin_catch
libvamp-sdk.so.2:__cxa_call_terminate
libvamp-sdk.so.2:__cxa_call_unexpected
libvamp-sdk.so.2:__cxa_current_exception_type
libvamp-sdk.so.2:__cxa_demangle
libvamp-sdk.so.2:__cxa_end_catch
libvamp-sdk.so.2:__cxa_free_dependent_exception
libvamp-sdk.so.2:__cxa_free_exception
libvamp-sdk.so.2:__cxa_get_exception_ptr
libvamp-sdk.so.2:__cxa_get_globals
libvamp-sdk.so.2:__cxa_get_globals_fast
libvamp-sdk.so.2:__cxa_guard_abort
libvamp-sdk.so.2:__cxa_guard_acquire
libvamp-sdk.so.2:__cxa_guard_release
libvamp-sdk.so.2:__cxa_init_primary_exception
libvamp-sdk.so.2:__cxa_rethrow
libvamp-sdk.so.2:__cxa_throw
libvamp-sdk.so.2:__cxa_throw_bad_array_new_length
libvamp-sdk.so.2:__dynamic_cast
libvamp-sdk.so.2:__gcclibcxx_demangle_callback
libvamp-sdk.so.2:__gxx_personality_v0
libvamp-sdk.so.2:libvampsdk_v_2_0_present
libvamp-sdk.so.2:libvampsdk_v_2_10_present
libvamp-sdk.so.2:libvampsdk_v_2_1_present
libvamp-sdk.so.2:libvampsdk_v_2_2_1_present
libvamp-sdk.so.2:libvampsdk_v_2_2_present
libvamp-sdk.so.2:libvampsdk_v_2_3_1_present
libvamp-sdk.so.2:libvampsdk_v_2_3_present
libvamp-sdk.so.2:libvampsdk_v_2_4_present
libvamp-sdk.so.2:libvampsdk_v_2_5_present
libvamp-sdk.so.2:libvampsdk_v_2_6_present
libvamp-sdk.so.2:libvampsdk_v_2_7_1_present
libvamp-sdk.so.2:libvampsdk_v_2_7_present
libvamp-sdk.so.2:libvampsdk_v_2_8_present
libvamp-sdk.so.2:libvampsdk_v_2_9_present
